TN:
SF:/home/joseph-mazzini/sys-scan-graph/src/core/ArgumentParser.cpp
FN:11,11,_ZZN8sys_scan14ArgumentParserC4EvENKUlRKNSt7__cxx1112basic_stringIcSt11char_traitsIcESaIcEEEE_clES8_
FN:12,12,_ZZN8sys_scan14ArgumentParserC4EvENKUlRKNSt7__cxx1112basic_stringIcSt11char_traitsIcESaIcEEEE0_clES8_
FN:13,13,_ZZN8sys_scan14ArgumentParserC4EvENKUlRKNSt7__cxx1112basic_stringIcSt11char_traitsIcESaIcEEEE1_clES8_
FN:14,14,_ZZN8sys_scan14ArgumentParserC4EvENKUlRKNSt7__cxx1112basic_stringIcSt11char_traitsIcESaIcEEEE2_clES8_
FN:15,15,_ZZN8sys_scan14ArgumentParserC4EvENKUlRKNSt7__cxx1112basic_stringIcSt11char_traitsIcESaIcEEEE3_clES8_
FN:16,16,_ZZN8sys_scan14ArgumentParserC4EvENKUlRKNSt7__cxx1112basic_stringIcSt11char_traitsIcESaIcEEEE4_clES8_
FN:17,17,_ZZN8sys_scan14ArgumentParserC4EvENKUlRKNSt7__cxx1112basic_stringIcSt11char_traitsIcESaIcEEEE5_clES8_
FN:18,18,_ZZN8sys_scan14ArgumentParserC4EvENKUlRKNSt7__cxx1112basic_stringIcSt11char_traitsIcESaIcEEEE6_clES8_
FN:19,19,_ZZN8sys_scan14ArgumentParserC4EvENKUlRKNSt7__cxx1112basic_stringIcSt11char_traitsIcESaIcEEEE7_clES8_
FN:20,20,_ZZN8sys_scan14ArgumentParserC4EvENKUlRKNSt7__cxx1112basic_stringIcSt11char_traitsIcESaIcEEEE8_clES8_
FN:21,21,_ZZN8sys_scan14ArgumentParserC4EvENKUlRKNSt7__cxx1112basic_stringIcSt11char_traitsIcESaIcEEEE9_clES8_
FN:22,22,_ZZN8sys_scan14ArgumentParserC4EvENKUlRKNSt7__cxx1112basic_stringIcSt11char_traitsIcESaIcEEEE10_clES8_
FN:23,23,_ZZN8sys_scan14ArgumentParserC4EvENKUlRKNSt7__cxx1112basic_stringIcSt11char_traitsIcESaIcEEEE11_clES8_
FN:24,24,_ZZN8sys_scan14ArgumentParserC4EvENKUlRKNSt7__cxx1112basic_stringIcSt11char_traitsIcESaIcEEEE12_clES8_
FN:25,25,_ZZN8sys_scan14ArgumentParserC4EvENKUlRKNSt7__cxx1112basic_stringIcSt11char_traitsIcESaIcEEEE13_clES8_
FN:26,26,_ZZN8sys_scan14ArgumentParserC4EvENKUlRKNSt7__cxx1112basic_stringIcSt11char_traitsIcESaIcEEEE14_clES8_
FN:27,27,_ZZN8sys_scan14ArgumentParserC4EvENKUlRKNSt7__cxx1112basic_stringIcSt11char_traitsIcESaIcEEEE15_clES8_
FN:28,28,_ZZN8sys_scan14ArgumentParserC4EvENKUlRKNSt7__cxx1112basic_stringIcSt11char_traitsIcESaIcEEEE16_clES8_
FN:29,29,_ZZN8sys_scan14ArgumentParserC4EvENKUlRKNSt7__cxx1112basic_stringIcSt11char_traitsIcESaIcEEEE17_clES8_
FN:30,30,_ZZN8sys_scan14ArgumentParserC4EvENKUlRKNSt7__cxx1112basic_stringIcSt11char_traitsIcESaIcEEEE18_clES8_
FN:300,380,_ZNK8sys_scan14ArgumentParser10print_helpEv
FN:31,31,_ZZN8sys_scan14ArgumentParserC4EvENKUlRKNSt7__cxx1112basic_stringIcSt11char_traitsIcESaIcEEEE19_clES8_
FN:32,32,_ZZN8sys_scan14ArgumentParserC4EvENKUlRKNSt7__cxx1112basic_stringIcSt11char_traitsIcESaIcEEEE20_clES8_
FN:33,33,_ZZN8sys_scan14ArgumentParserC4EvENKUlRKNSt7__cxx1112basic_stringIcSt11char_traitsIcESaIcEEEE21_clES8_
FN:34,34,_ZZN8sys_scan14ArgumentParserC4EvENKUlRKNSt7__cxx1112basic_stringIcSt11char_traitsIcESaIcEEEE22_clES8_
FN:35,35,_ZZN8sys_scan14ArgumentParserC4EvENKUlRKNSt7__cxx1112basic_stringIcSt11char_traitsIcESaIcEEEE23_clES8_
FN:36,36,_ZZN8sys_scan14ArgumentParserC4EvENKUlRKNSt7__cxx1112basic_stringIcSt11char_traitsIcESaIcEEEE24_clES8_
FN:37,37,_ZZN8sys_scan14ArgumentParserC4EvENKUlRKNSt7__cxx1112basic_stringIcSt11char_traitsIcESaIcEEEE25_clES8_
FN:38,38,_ZZN8sys_scan14ArgumentParserC4EvENKUlRKNSt7__cxx1112basic_stringIcSt11char_traitsIcESaIcEEEE26_clES8_
FN:382,387,_ZNK8sys_scan14ArgumentParser13print_versionEv
FN:389,402,_ZNK8sys_scan14ArgumentParser9split_csvERKNSt7__cxx1112basic_stringIcSt11char_traitsIcESaIcEEE
FN:39,39,_ZZN8sys_scan14ArgumentParserC4EvENKUlRKNSt7__cxx1112basic_stringIcSt11char_traitsIcESaIcEEEE27_clES8_
FN:40,40,_ZZN8sys_scan14ArgumentParserC4EvENKUlRKNSt7__cxx1112basic_stringIcSt11char_traitsIcESaIcEEEE28_clES8_
FN:404,411,_ZNK8sys_scan14ArgumentParser8need_intERKNSt7__cxx1112basic_stringIcSt11char_traitsIcESaIcEEEPKc
FN:41,41,_ZZN8sys_scan14ArgumentParserC4EvENKUlRKNSt7__cxx1112basic_stringIcSt11char_traitsIcESaIcEEEE29_clES8_
FN:413,418,_ZN8sys_scan14ArgumentParser9find_specERKNSt7__cxx1112basic_stringIcSt11char_traitsIcESaIcEEE
FN:42,42,_ZZN8sys_scan14ArgumentParserC4EvENKUlRKNSt7__cxx1112basic_stringIcSt11char_traitsIcESaIcEEEE30_clES8_
FN:43,43,_ZZN8sys_scan14ArgumentParserC4EvENKUlRKNSt7__cxx1112basic_stringIcSt11char_traitsIcESaIcEEEE31_clES8_
FN:44,44,_ZZN8sys_scan14ArgumentParserC4EvENKUlRKNSt7__cxx1112basic_stringIcSt11char_traitsIcESaIcEEEE32_clES8_
FN:45,45,_ZZN8sys_scan14ArgumentParserC4EvENKUlRKNSt7__cxx1112basic_stringIcSt11char_traitsIcESaIcEEEE33_clES8_
FN:46,46,_ZZN8sys_scan14ArgumentParserC4EvENKUlRKNSt7__cxx1112basic_stringIcSt11char_traitsIcESaIcEEEE34_clES8_
FN:47,47,_ZZN8sys_scan14ArgumentParserC4EvENKUlRKNSt7__cxx1112basic_stringIcSt11char_traitsIcESaIcEEEE35_clES8_
FN:48,48,_ZZN8sys_scan14ArgumentParserC4EvENKUlRKNSt7__cxx1112basic_stringIcSt11char_traitsIcESaIcEEEE36_clES8_
FN:49,49,_ZZN8sys_scan14ArgumentParserC4EvENKUlRKNSt7__cxx1112basic_stringIcSt11char_traitsIcESaIcEEEE37_clES8_
FN:50,50,_ZZN8sys_scan14ArgumentParserC4EvENKUlRKNSt7__cxx1112basic_stringIcSt11char_traitsIcESaIcEEEE38_clES8_
FN:51,51,_ZZN8sys_scan14ArgumentParserC4EvENKUlRKNSt7__cxx1112basic_stringIcSt11char_traitsIcESaIcEEEE39_clES8_
FN:52,52,_ZZN8sys_scan14ArgumentParserC4EvENKUlRKNSt7__cxx1112basic_stringIcSt11char_traitsIcESaIcEEEE40_clES8_
FN:53,53,_ZZN8sys_scan14ArgumentParserC4EvENKUlRKNSt7__cxx1112basic_stringIcSt11char_traitsIcESaIcEEEE41_clES8_
FN:54,54,_ZZN8sys_scan14ArgumentParserC4EvENKUlRKNSt7__cxx1112basic_stringIcSt11char_traitsIcESaIcEEEE42_clES8_
FN:55,55,_ZZN8sys_scan14ArgumentParserC4EvENKUlRKNSt7__cxx1112basic_stringIcSt11char_traitsIcESaIcEEEE43_clES8_
FN:56,56,_ZZN8sys_scan14ArgumentParserC4EvENKUlRKNSt7__cxx1112basic_stringIcSt11char_traitsIcESaIcEEEE44_clES8_
FN:57,57,_ZZN8sys_scan14ArgumentParserC4EvENKUlRKNSt7__cxx1112basic_stringIcSt11char_traitsIcESaIcEEEE45_clES8_
FN:58,58,_ZZN8sys_scan14ArgumentParserC4EvENKUlRKNSt7__cxx1112basic_stringIcSt11char_traitsIcESaIcEEEE46_clES8_
FN:59,59,_ZZN8sys_scan14ArgumentParserC4EvENKUlRKNSt7__cxx1112basic_stringIcSt11char_traitsIcESaIcEEEE47_clES8_
FN:60,60,_ZZN8sys_scan14ArgumentParserC4EvENKUlRKNSt7__cxx1112basic_stringIcSt11char_traitsIcESaIcEEEE48_clES8_
FN:61,61,_ZZN8sys_scan14ArgumentParserC4EvENKUlRKNSt7__cxx1112basic_stringIcSt11char_traitsIcESaIcEEEE49_clES8_
FN:62,62,_ZZN8sys_scan14ArgumentParserC4EvENKUlRKNSt7__cxx1112basic_stringIcSt11char_traitsIcESaIcEEEE50_clES8_
FN:63,63,_ZZN8sys_scan14ArgumentParserC4EvENKUlRKNSt7__cxx1112basic_stringIcSt11char_traitsIcESaIcEEEE51_clES8_
FN:64,64,_ZZN8sys_scan14ArgumentParserC4EvENKUlRKNSt7__cxx1112basic_stringIcSt11char_traitsIcESaIcEEEE52_clES8_
FN:65,65,_ZZN8sys_scan14ArgumentParserC4EvENKUlRKNSt7__cxx1112basic_stringIcSt11char_traitsIcESaIcEEEE53_clES8_
FN:66,66,_ZZN8sys_scan14ArgumentParserC4EvENKUlRKNSt7__cxx1112basic_stringIcSt11char_traitsIcESaIcEEEE54_clES8_
FN:67,67,_ZZN8sys_scan14ArgumentParserC4EvENKUlRKNSt7__cxx1112basic_stringIcSt11char_traitsIcESaIcEEEE55_clES8_
FN:68,68,_ZZN8sys_scan14ArgumentParserC4EvENKUlRKNSt7__cxx1112basic_stringIcSt11char_traitsIcESaIcEEEE56_clES8_
FN:69,69,_ZZN8sys_scan14ArgumentParserC4EvENKUlRKNSt7__cxx1112basic_stringIcSt11char_traitsIcESaIcEEEE57_clES8_
FN:70,70,_ZZN8sys_scan14ArgumentParserC4EvENKUlRKNSt7__cxx1112basic_stringIcSt11char_traitsIcESaIcEEEE58_clES8_
FN:71,71,_ZZN8sys_scan14ArgumentParserC4EvENKUlRKNSt7__cxx1112basic_stringIcSt11char_traitsIcESaIcEEEE59_clES8_
FN:72,72,_ZZN8sys_scan14ArgumentParserC4EvENKUlRKNSt7__cxx1112basic_stringIcSt11char_traitsIcESaIcEEEE60_clES8_
FN:73,73,_ZZN8sys_scan14ArgumentParserC4EvENKUlRKNSt7__cxx1112basic_stringIcSt11char_traitsIcESaIcEEEE61_clES8_
FN:74,74,_ZZN8sys_scan14ArgumentParserC4EvENKUlRKNSt7__cxx1112basic_stringIcSt11char_traitsIcESaIcEEEE62_clES8_
FN:78,298,_ZN8sys_scan14ArgumentParser5parseEiPPcRNS_6ConfigE
FN:9,76,_ZN8sys_scan14ArgumentParserC2Ev
FNDA:0,_ZZN8sys_scan14ArgumentParserC4EvENKUlRKNSt7__cxx1112basic_stringIcSt11char_traitsIcESaIcEEEE_clES8_
FNDA:0,_ZZN8sys_scan14ArgumentParserC4EvENKUlRKNSt7__cxx1112basic_stringIcSt11char_traitsIcESaIcEEEE0_clES8_
FNDA:0,_ZZN8sys_scan14ArgumentParserC4EvENKUlRKNSt7__cxx1112basic_stringIcSt11char_traitsIcESaIcEEEE1_clES8_
FNDA:0,_ZZN8sys_scan14ArgumentParserC4EvENKUlRKNSt7__cxx1112basic_stringIcSt11char_traitsIcESaIcEEEE2_clES8_
FNDA:0,_ZZN8sys_scan14ArgumentParserC4EvENKUlRKNSt7__cxx1112basic_stringIcSt11char_traitsIcESaIcEEEE3_clES8_
FNDA:0,_ZZN8sys_scan14ArgumentParserC4EvENKUlRKNSt7__cxx1112basic_stringIcSt11char_traitsIcESaIcEEEE4_clES8_
FNDA:0,_ZZN8sys_scan14ArgumentParserC4EvENKUlRKNSt7__cxx1112basic_stringIcSt11char_traitsIcESaIcEEEE5_clES8_
FNDA:0,_ZZN8sys_scan14ArgumentParserC4EvENKUlRKNSt7__cxx1112basic_stringIcSt11char_traitsIcESaIcEEEE6_clES8_
FNDA:0,_ZZN8sys_scan14ArgumentParserC4EvENKUlRKNSt7__cxx1112basic_stringIcSt11char_traitsIcESaIcEEEE7_clES8_
FNDA:0,_ZZN8sys_scan14ArgumentParserC4EvENKUlRKNSt7__cxx1112basic_stringIcSt11char_traitsIcESaIcEEEE8_clES8_
FNDA:0,_ZZN8sys_scan14ArgumentParserC4EvENKUlRKNSt7__cxx1112basic_stringIcSt11char_traitsIcESaIcEEEE9_clES8_
FNDA:0,_ZZN8sys_scan14ArgumentParserC4EvENKUlRKNSt7__cxx1112basic_stringIcSt11char_traitsIcESaIcEEEE10_clES8_
FNDA:0,_ZZN8sys_scan14ArgumentParserC4EvENKUlRKNSt7__cxx1112basic_stringIcSt11char_traitsIcESaIcEEEE11_clES8_
FNDA:0,_ZZN8sys_scan14ArgumentParserC4EvENKUlRKNSt7__cxx1112basic_stringIcSt11char_traitsIcESaIcEEEE12_clES8_
FNDA:0,_ZZN8sys_scan14ArgumentParserC4EvENKUlRKNSt7__cxx1112basic_stringIcSt11char_traitsIcESaIcEEEE13_clES8_
FNDA:0,_ZZN8sys_scan14ArgumentParserC4EvENKUlRKNSt7__cxx1112basic_stringIcSt11char_traitsIcESaIcEEEE14_clES8_
FNDA:0,_ZZN8sys_scan14ArgumentParserC4EvENKUlRKNSt7__cxx1112basic_stringIcSt11char_traitsIcESaIcEEEE15_clES8_
FNDA:0,_ZZN8sys_scan14ArgumentParserC4EvENKUlRKNSt7__cxx1112basic_stringIcSt11char_traitsIcESaIcEEEE16_clES8_
FNDA:0,_ZZN8sys_scan14ArgumentParserC4EvENKUlRKNSt7__cxx1112basic_stringIcSt11char_traitsIcESaIcEEEE17_clES8_
FNDA:0,_ZZN8sys_scan14ArgumentParserC4EvENKUlRKNSt7__cxx1112basic_stringIcSt11char_traitsIcESaIcEEEE18_clES8_
FNDA:3,_ZNK8sys_scan14ArgumentParser10print_helpEv
FNDA:0,_ZZN8sys_scan14ArgumentParserC4EvENKUlRKNSt7__cxx1112basic_stringIcSt11char_traitsIcESaIcEEEE19_clES8_
FNDA:0,_ZZN8sys_scan14ArgumentParserC4EvENKUlRKNSt7__cxx1112basic_stringIcSt11char_traitsIcESaIcEEEE20_clES8_
FNDA:0,_ZZN8sys_scan14ArgumentParserC4EvENKUlRKNSt7__cxx1112basic_stringIcSt11char_traitsIcESaIcEEEE21_clES8_
FNDA:0,_ZZN8sys_scan14ArgumentParserC4EvENKUlRKNSt7__cxx1112basic_stringIcSt11char_traitsIcESaIcEEEE22_clES8_
FNDA:0,_ZZN8sys_scan14ArgumentParserC4EvENKUlRKNSt7__cxx1112basic_stringIcSt11char_traitsIcESaIcEEEE23_clES8_
FNDA:0,_ZZN8sys_scan14ArgumentParserC4EvENKUlRKNSt7__cxx1112basic_stringIcSt11char_traitsIcESaIcEEEE24_clES8_
FNDA:0,_ZZN8sys_scan14ArgumentParserC4EvENKUlRKNSt7__cxx1112basic_stringIcSt11char_traitsIcESaIcEEEE25_clES8_
FNDA:0,_ZZN8sys_scan14ArgumentParserC4EvENKUlRKNSt7__cxx1112basic_stringIcSt11char_traitsIcESaIcEEEE26_clES8_
FNDA:1,_ZNK8sys_scan14ArgumentParser13print_versionEv
FNDA:27,_ZNK8sys_scan14ArgumentParser9split_csvERKNSt7__cxx1112basic_stringIcSt11char_traitsIcESaIcEEE
FNDA:0,_ZZN8sys_scan14ArgumentParserC4EvENKUlRKNSt7__cxx1112basic_stringIcSt11char_traitsIcESaIcEEEE27_clES8_
FNDA:0,_ZZN8sys_scan14ArgumentParserC4EvENKUlRKNSt7__cxx1112basic_stringIcSt11char_traitsIcESaIcEEEE28_clES8_
FNDA:11,_ZNK8sys_scan14ArgumentParser8need_intERKNSt7__cxx1112basic_stringIcSt11char_traitsIcESaIcEEEPKc
FNDA:0,_ZZN8sys_scan14ArgumentParserC4EvENKUlRKNSt7__cxx1112basic_stringIcSt11char_traitsIcESaIcEEEE29_clES8_
FNDA:105,_ZN8sys_scan14ArgumentParser9find_specERKNSt7__cxx1112basic_stringIcSt11char_traitsIcESaIcEEE
FNDA:0,_ZZN8sys_scan14ArgumentParserC4EvENKUlRKNSt7__cxx1112basic_stringIcSt11char_traitsIcESaIcEEEE30_clES8_
FNDA:0,_ZZN8sys_scan14ArgumentParserC4EvENKUlRKNSt7__cxx1112basic_stringIcSt11char_traitsIcESaIcEEEE31_clES8_
FNDA:0,_ZZN8sys_scan14ArgumentParserC4EvENKUlRKNSt7__cxx1112basic_stringIcSt11char_traitsIcESaIcEEEE32_clES8_
FNDA:0,_ZZN8sys_scan14ArgumentParserC4EvENKUlRKNSt7__cxx1112basic_stringIcSt11char_traitsIcESaIcEEEE33_clES8_
FNDA:0,_ZZN8sys_scan14ArgumentParserC4EvENKUlRKNSt7__cxx1112basic_stringIcSt11char_traitsIcESaIcEEEE34_clES8_
FNDA:0,_ZZN8sys_scan14ArgumentParserC4EvENKUlRKNSt7__cxx1112basic_stringIcSt11char_traitsIcESaIcEEEE35_clES8_
FNDA:0,_ZZN8sys_scan14ArgumentParserC4EvENKUlRKNSt7__cxx1112basic_stringIcSt11char_traitsIcESaIcEEEE36_clES8_
FNDA:0,_ZZN8sys_scan14ArgumentParserC4EvENKUlRKNSt7__cxx1112basic_stringIcSt11char_traitsIcESaIcEEEE37_clES8_
FNDA:0,_ZZN8sys_scan14ArgumentParserC4EvENKUlRKNSt7__cxx1112basic_stringIcSt11char_traitsIcESaIcEEEE38_clES8_
FNDA:0,_ZZN8sys_scan14ArgumentParserC4EvENKUlRKNSt7__cxx1112basic_stringIcSt11char_traitsIcESaIcEEEE39_clES8_
FNDA:0,_ZZN8sys_scan14ArgumentParserC4EvENKUlRKNSt7__cxx1112basic_stringIcSt11char_traitsIcESaIcEEEE40_clES8_
FNDA:0,_ZZN8sys_scan14ArgumentParserC4EvENKUlRKNSt7__cxx1112basic_stringIcSt11char_traitsIcESaIcEEEE41_clES8_
FNDA:0,_ZZN8sys_scan14ArgumentParserC4EvENKUlRKNSt7__cxx1112basic_stringIcSt11char_traitsIcESaIcEEEE42_clES8_
FNDA:0,_ZZN8sys_scan14ArgumentParserC4EvENKUlRKNSt7__cxx1112basic_stringIcSt11char_traitsIcESaIcEEEE43_clES8_
FNDA:0,_ZZN8sys_scan14ArgumentParserC4EvENKUlRKNSt7__cxx1112basic_stringIcSt11char_traitsIcESaIcEEEE44_clES8_
FNDA:0,_ZZN8sys_scan14ArgumentParserC4EvENKUlRKNSt7__cxx1112basic_stringIcSt11char_traitsIcESaIcEEEE45_clES8_
FNDA:0,_ZZN8sys_scan14ArgumentParserC4EvENKUlRKNSt7__cxx1112basic_stringIcSt11char_traitsIcESaIcEEEE46_clES8_
FNDA:0,_ZZN8sys_scan14ArgumentParserC4EvENKUlRKNSt7__cxx1112basic_stringIcSt11char_traitsIcESaIcEEEE47_clES8_
FNDA:0,_ZZN8sys_scan14ArgumentParserC4EvENKUlRKNSt7__cxx1112basic_stringIcSt11char_traitsIcESaIcEEEE48_clES8_
FNDA:0,_ZZN8sys_scan14ArgumentParserC4EvENKUlRKNSt7__cxx1112basic_stringIcSt11char_traitsIcESaIcEEEE49_clES8_
FNDA:0,_ZZN8sys_scan14ArgumentParserC4EvENKUlRKNSt7__cxx1112basic_stringIcSt11char_traitsIcESaIcEEEE50_clES8_
FNDA:0,_ZZN8sys_scan14ArgumentParserC4EvENKUlRKNSt7__cxx1112basic_stringIcSt11char_traitsIcESaIcEEEE51_clES8_
FNDA:0,_ZZN8sys_scan14ArgumentParserC4EvENKUlRKNSt7__cxx1112basic_stringIcSt11char_traitsIcESaIcEEEE52_clES8_
FNDA:0,_ZZN8sys_scan14ArgumentParserC4EvENKUlRKNSt7__cxx1112basic_stringIcSt11char_traitsIcESaIcEEEE53_clES8_
FNDA:0,_ZZN8sys_scan14ArgumentParserC4EvENKUlRKNSt7__cxx1112basic_stringIcSt11char_traitsIcESaIcEEEE54_clES8_
FNDA:0,_ZZN8sys_scan14ArgumentParserC4EvENKUlRKNSt7__cxx1112basic_stringIcSt11char_traitsIcESaIcEEEE55_clES8_
FNDA:0,_ZZN8sys_scan14ArgumentParserC4EvENKUlRKNSt7__cxx1112basic_stringIcSt11char_traitsIcESaIcEEEE56_clES8_
FNDA:0,_ZZN8sys_scan14ArgumentParserC4EvENKUlRKNSt7__cxx1112basic_stringIcSt11char_traitsIcESaIcEEEE57_clES8_
FNDA:0,_ZZN8sys_scan14ArgumentParserC4EvENKUlRKNSt7__cxx1112basic_stringIcSt11char_traitsIcESaIcEEEE58_clES8_
FNDA:0,_ZZN8sys_scan14ArgumentParserC4EvENKUlRKNSt7__cxx1112basic_stringIcSt11char_traitsIcESaIcEEEE59_clES8_
FNDA:0,_ZZN8sys_scan14ArgumentParserC4EvENKUlRKNSt7__cxx1112basic_stringIcSt11char_traitsIcESaIcEEEE60_clES8_
FNDA:0,_ZZN8sys_scan14ArgumentParserC4EvENKUlRKNSt7__cxx1112basic_stringIcSt11char_traitsIcESaIcEEEE61_clES8_
FNDA:0,_ZZN8sys_scan14ArgumentParserC4EvENKUlRKNSt7__cxx1112basic_stringIcSt11char_traitsIcESaIcEEEE62_clES8_
FNDA:47,_ZN8sys_scan14ArgumentParser5parseEiPPcRNS_6ConfigE
FNDA:41,_ZN8sys_scan14ArgumentParserC2Ev
FNF:71
FNH:7
DA:9,41
DA:10,2665
DA:11,0
DA:12,0
DA:13,0
DA:14,0
DA:15,0
DA:16,0
DA:17,0
DA:18,0
DA:19,0
DA:20,0
DA:21,0
DA:22,0
DA:23,0
DA:24,0
DA:25,0
DA:26,0
DA:27,0
DA:28,0
DA:29,0
DA:30,0
DA:31,0
DA:32,0
DA:33,0
DA:34,0
DA:35,0
DA:36,0
DA:37,0
DA:38,0
DA:39,0
DA:40,0
DA:41,0
DA:42,0
DA:43,0
DA:44,0
DA:45,0
DA:46,0
DA:47,0
DA:48,0
DA:49,0
DA:50,0
DA:51,0
DA:52,0
DA:53,0
DA:54,0
DA:55,0
DA:56,0
DA:57,0
DA:58,0
DA:59,0
DA:60,0
DA:61,0
DA:62,0
DA:63,0
DA:64,0
DA:65,0
DA:66,0
DA:67,0
DA:68,0
DA:69,0
DA:70,0
DA:71,0
DA:72,0
DA:73,0
DA:74,0
DA:75,2665
DA:76,82
DA:78,47
DA:79,148
DA:80,107
DA:82,107
DA:83,1
DA:84,1
DA:87,106
DA:88,1
DA:89,1
DA:92,105
DA:93,105
DA:94,2
DA:95,2
DA:96,2
DA:99,103
DA:100,103
DA:101,29
DA:102,29
DA:103,74
DA:106,74
DA:107,1
DA:108,1
DA:110,73
DA:111,73
DA:113,0
DA:114,0
DA:115,0
DA:117,0
DA:122,102
DA:123,20
DA:124,82
DA:125,3
DA:126,79
DA:127,18
DA:128,61
DA:129,7
DA:130,54
DA:131,3
DA:132,51
DA:133,5
DA:134,46
DA:135,9
DA:136,37
DA:137,0
DA:138,37
DA:139,3
DA:140,34
DA:141,3
DA:142,31
DA:143,2
DA:144,29
DA:145,2
DA:146,27
DA:147,0
DA:148,27
DA:149,0
DA:150,27
DA:151,2
DA:152,25
DA:153,0
DA:154,25
DA:155,0
DA:156,25
DA:158,0
DA:159,0
DA:160,0
DA:161,0
DA:162,25
DA:163,0
DA:164,25
DA:166,0
DA:167,0
DA:168,0
DA:169,0
DA:170,25
DA:171,0
DA:172,25
DA:174,0
DA:175,0
DA:176,0
DA:177,0
DA:178,25
DA:179,0
DA:180,25
DA:181,0
DA:182,25
DA:183,0
DA:184,25
DA:185,0
DA:186,25
DA:188,5
DA:189,1
DA:190,1
DA:191,1
DA:192,20
DA:194,4
DA:195,0
DA:196,0
DA:197,0
DA:198,16
DA:199,0
DA:200,16
DA:201,0
DA:202,16
DA:203,0
DA:204,16
DA:205,0
DA:206,16
DA:207,0
DA:208,16
DA:210,0
DA:211,0
DA:212,0
DA:213,0
DA:214,16
DA:216,0
DA:217,0
DA:218,0
DA:219,0
DA:220,16
DA:221,2
DA:222,14
DA:223,1
DA:224,13
DA:225,0
DA:226,13
DA:227,0
DA:228,0
DA:230,0
DA:231,0
DA:232,0
DA:233,0
DA:235,13
DA:236,2
DA:237,11
DA:238,0
DA:239,11
DA:240,0
DA:241,11
DA:243,0
DA:244,0
DA:245,0
DA:246,0
DA:247,11
DA:248,0
DA:249,11
DA:250,0
DA:251,11
DA:252,0
DA:253,11
DA:254,1
DA:255,10
DA:256,4
DA:257,6
DA:258,0
DA:259,6
DA:260,0
DA:261,0
DA:262,6
DA:263,0
DA:264,6
DA:265,0
DA:266,6
DA:267,0
DA:268,6
DA:269,0
DA:270,6
DA:271,0
DA:272,6
DA:273,0
DA:274,6
DA:275,0
DA:276,6
DA:277,0
DA:278,6
DA:279,0
DA:280,6
DA:281,0
DA:282,6
DA:283,2
DA:284,4
DA:285,2
DA:286,2
DA:287,0
DA:288,2
DA:290,2
DA:291,0
DA:292,0
DA:293,0
DA:295,109
DA:297,41
DA:300,3
DA:301,3
DA:370,139
DA:371,201
DA:372,198
DA:373,198
DA:374,2838
DA:376,3
DA:378,198
DA:380,9
DA:382,1
DA:386,1
DA:387,1
DA:389,27
DA:390,27
DA:391,27
DA:392,300
DA:393,273
DA:394,20
DA:395,20
DA:397,253
DA:400,27
DA:401,54
DA:402,27
DA:404,11
DA:406,11
DA:407,1
DA:408,1
DA:409,1
DA:410,1
DA:413,105
DA:414,1531
DA:415,1529
DA:417,2
LF:293
LH:153
end_of_record
TN:
SF:/home/joseph-mazzini/sys-scan-graph/src/core/ArgumentParser.h
FN:19,19,_ZN8sys_scan14ArgumentParserD2Ev
FNDA:41,_ZN8sys_scan14ArgumentParserD2Ev
FNF:1
FNH:1
DA:19,41
LF:1
LH:1
end_of_record
TN:
SF:/home/joseph-mazzini/sys-scan-graph/src/core/Compliance.cpp
FN:12,13,_ZN8sys_scanL18file_has_min_permsERKNSt7__cxx1112basic_stringIcSt11char_traitsIcESaIcEEEj
FN:15,62,_ZN8sys_scan17ComplianceScanner4scanERNS_11ScanContextE
FN:65,90,_ZN8sys_scan20PCIComplianceScanner15register_checksEv
FN:69,69,_ZZN8sys_scan20PCIComplianceScanner15register_checksEvENKUlvE_clEv
FN:70,70,_ZZN8sys_scan20PCIComplianceScanner15register_checksEvENKUlvE0_clEv
FN:75,75,_ZZN8sys_scan20PCIComplianceScanner15register_checksEvENKUlvE1_clEv
FN:76,76,_ZZN8sys_scan20PCIComplianceScanner15register_checksEvENKUlvE2_clEv
FN:81,81,_ZZN8sys_scan20PCIComplianceScanner15register_checksEvENKUlvE3_clEv
FN:82,82,_ZZN8sys_scan20PCIComplianceScanner15register_checksEvENKUlvE4_clEv
FN:87,87,_ZZN8sys_scan20PCIComplianceScanner15register_checksEvENKUlvE5_clEv
FN:88,88,_ZZN8sys_scan20PCIComplianceScanner15register_checksEvENKUlvE6_clEv
FNDA:0,_ZN8sys_scanL18file_has_min_permsERKNSt7__cxx1112basic_stringIcSt11char_traitsIcESaIcEEEj
FNDA:8,_ZN8sys_scan17ComplianceScanner4scanERNS_11ScanContextE
FNDA:6,_ZN8sys_scan20PCIComplianceScanner15register_checksEv
FNDA:6,_ZZN8sys_scan20PCIComplianceScanner15register_checksEvENKUlvE_clEv
FNDA:6,_ZZN8sys_scan20PCIComplianceScanner15register_checksEvENKUlvE0_clEv
FNDA:6,_ZZN8sys_scan20PCIComplianceScanner15register_checksEvENKUlvE1_clEv
FNDA:6,_ZZN8sys_scan20PCIComplianceScanner15register_checksEvENKUlvE2_clEv
FNDA:6,_ZZN8sys_scan20PCIComplianceScanner15register_checksEvENKUlvE3_clEv
FNDA:6,_ZZN8sys_scan20PCIComplianceScanner15register_checksEvENKUlvE4_clEv
FNDA:6,_ZZN8sys_scan20PCIComplianceScanner15register_checksEvENKUlvE5_clEv
FNDA:6,_ZZN8sys_scan20PCIComplianceScanner15register_checksEvENKUlvE6_clEv
FNF:11
FNH:10
DA:12,0
DA:13,0
DA:15,8
DA:16,8
DA:17,8
DA:18,8
DA:19,8
DA:20,33
DA:21,25
DA:22,25
DA:23,25
DA:24,25
DA:25,25
DA:27,25
DA:29,25
DA:30,25
DA:31,25
DA:32,25
DA:33,25
DA:34,50
DA:35,50
DA:36,50
DA:37,50
DA:38,27
DA:39,25
DA:40,0
DA:42,25
DA:43,25
DA:44,25
DA:45,25
DA:46,25
DA:48,8
DA:49,7
DA:50,7
DA:52,15
DA:53,7
DA:54,21
DA:55,21
DA:56,21
DA:57,21
DA:58,7
DA:59,7
DA:60,21
DA:62,8
DA:65,6
DA:67,6
DA:69,6
DA:70,12
DA:73,6
DA:75,6
DA:76,12
DA:79,6
DA:81,6
DA:82,12
DA:85,6
DA:87,6
DA:88,12
DA:90,102
LF:58
LH:55
end_of_record
TN:
SF:/home/joseph-mazzini/sys-scan-graph/src/core/Compliance.h
FN:45,45,_ZN8sys_scan17ComplianceScannerD0Ev
FN:45,45,_ZN8sys_scan17ComplianceScannerD2Ev
FN:52,52,_ZNK8sys_scan20PCIComplianceScanner4nameB5cxx11Ev
FN:53,53,_ZNK8sys_scan20PCIComplianceScanner11descriptionB5cxx11Ev
FNDA:0,_ZN8sys_scan17ComplianceScannerD0Ev
FNDA:8,_ZN8sys_scan17ComplianceScannerD2Ev
FNDA:6,_ZNK8sys_scan20PCIComplianceScanner4nameB5cxx11Ev
FNDA:0,_ZNK8sys_scan20PCIComplianceScanner11descriptionB5cxx11Ev
FNF:4
FNH:2
DA:45,8
DA:52,18
DA:53,0
LF:3
LH:2
end_of_record
TN:
SF:/home/joseph-mazzini/sys-scan-graph/src/core/Config.h
FNF:0
FNH:0
LF:0
LH:0
end_of_record
TN:
SF:/home/joseph-mazzini/sys-scan-graph/src/core/ConfigValidator.cpp
FN:102,118,_ZN8sys_scan15ConfigValidator19load_external_filesERNS_6ConfigE
FN:120,146,_ZN8sys_scan15ConfigValidator17validate_severityERKNSt7__cxx1112basic_stringIcSt11char_traitsIcESaIcEEES8_
FN:148,159,_ZNK8sys_scan15ConfigValidator13severity_rankERKNSt7__cxx1112basic_stringIcSt11char_traitsIcESaIcEEE
FN:161,186,_ZN8sys_scan15ConfigValidator18load_ioc_allowlistERNS_6ConfigE
FN:188,205,_ZN8sys_scan15ConfigValidator18load_suid_expectedERNS_6ConfigE
FN:82,100,_ZN8sys_scan15ConfigValidator29apply_fast_scan_optimizationsERNS_6ConfigE
FN:86,90,_ZZN8sys_scan15ConfigValidator29apply_fast_scan_optimizationsERNS_6ConfigEENKUlRKNSt7__cxx1112basic_stringIcSt11char_traitsIcESaIcEEEE_clESA_
FN:9,80,_ZN8sys_scan15ConfigValidator8validateERNS_6ConfigE
FNDA:6,_ZN8sys_scan15ConfigValidator19load_external_filesERNS_6ConfigE
FNDA:138,_ZN8sys_scan15ConfigValidator17validate_severityERKNSt7__cxx1112basic_stringIcSt11char_traitsIcESaIcEEES8_
FNDA:0,_ZNK8sys_scan15ConfigValidator13severity_rankERKNSt7__cxx1112basic_stringIcSt11char_traitsIcESaIcEEE
FNDA:5,_ZN8sys_scan15ConfigValidator18load_ioc_allowlistERNS_6ConfigE
FNDA:1,_ZN8sys_scan15ConfigValidator18load_suid_expectedERNS_6ConfigE
FNDA:4,_ZN8sys_scan15ConfigValidator29apply_fast_scan_optimizationsERNS_6ConfigE
FNDA:6,_ZZN8sys_scan15ConfigValidator29apply_fast_scan_optimizationsERNS_6ConfigEENKUlRKNSt7__cxx1112basic_stringIcSt11char_traitsIcESaIcEEEE_clESA_
FNDA:70,_ZN8sys_scan15ConfigValidator8validateERNS_6ConfigE
FNF:8
FNH:7
DA:9,70
DA:11,70
DA:12,0
DA:22,70
DA:23,4
DA:27,70
DA:28,0
DA:29,0
DA:33,140
DA:34,2
DA:36,136
DA:37,1
DA:41,67
DA:42,25
DA:43,25
DA:44,25
DA:45,25
DA:48,25
DA:49,2
DA:50,2
DA:52,27
DA:55,197
DA:56,135
DA:57,2
DA:58,2
DA:61,133
DA:62,130
DA:63,1
DA:66,2353
DA:67,2224
DA:68,0
DA:74,62
DA:75,0
DA:76,0
DA:79,62
DA:82,4
DA:83,4
DA:86,6
DA:87,6
DA:88,6
DA:90,8
DA:92,4
DA:93,4
DA:94,2
DA:97,2
DA:102,6
DA:103,6
DA:105,6
DA:106,5
DA:107,1
DA:111,6
DA:112,1
DA:113,0
DA:117,6
DA:120,138
DA:122,138
DA:123,138
DA:124,138
DA:125,54
DA:126,54
DA:127,54
DA:128,54
DA:131,84
DA:134,138
DA:137,54
DA:138,54
DA:140,54
DA:141,3
DA:142,3
DA:145,51
DA:146,138
DA:148,0
DA:149,0
DA:150,0
DA:152,0
DA:153,0
DA:154,0
DA:155,0
DA:156,0
DA:157,0
DA:158,0
DA:159,0
DA:161,5
DA:162,5
DA:163,5
DA:164,1
DA:165,1
DA:168,4
DA:169,13
DA:171,9
DA:172,9
DA:173,8
DA:175,1
DA:178,9
DA:179,8
DA:180,5
DA:185,4
DA:186,5
DA:188,1
DA:189,1
DA:190,1
DA:191,0
DA:192,0
DA:195,1
DA:196,5
DA:197,4
DA:198,4
DA:199,3
DA:204,1
DA:205,1
LF:110
LH:90
end_of_record
TN:
SF:/home/joseph-mazzini/sys-scan-graph/src/core/ConfigValidator.h
FN:11,11,_ZN8sys_scan15ConfigValidatorC2Ev
FN:12,12,_ZN8sys_scan15ConfigValidatorD2Ev
FNDA:48,_ZN8sys_scan15ConfigValidatorC2Ev
FNDA:48,_ZN8sys_scan15ConfigValidatorD2Ev
FNF:2
FNH:2
DA:11,144
DA:12,48
LF:2
LH:2
end_of_record
TN:
SF:/home/joseph-mazzini/sys-scan-graph/src/core/ExitCodeHandler.cpp
FN:37,39,_ZNK8sys_scan15ExitCodeHandler13severity_rankERKNSt7__cxx1112basic_stringIcSt11char_traitsIcESaIcEEE
FN:41,43,_ZNK8sys_scan15ExitCodeHandler18severity_rank_enumENS_8SeverityE
FN:7,35,_ZNK8sys_scan15ExitCodeHandler19calculate_exit_codeERKNS_6ReportERKNS_6ConfigE
FNDA:42,_ZNK8sys_scan15ExitCodeHandler13severity_rankERKNSt7__cxx1112basic_stringIcSt11char_traitsIcESaIcEEE
FNDA:1632,_ZNK8sys_scan15ExitCodeHandler18severity_rank_enumENS_8SeverityE
FNDA:56,_ZNK8sys_scan15ExitCodeHandler19calculate_exit_codeERKNS_6ReportERKNS_6ConfigE
FNF:3
FNH:3
DA:7,56
DA:9,56
DA:10,42
DA:11,42
DA:12,92
DA:13,1682
DA:14,1632
DA:15,28
DA:20,14
DA:24,14
DA:25,9
DA:26,18
DA:27,9
DA:29,9
DA:30,5
DA:34,9
DA:37,42
DA:38,42
DA:41,1632
DA:42,1632
LF:20
LH:20
end_of_record
TN:
SF:/home/joseph-mazzini/sys-scan-graph/src/core/GPGSigner.cpp
FN:12,80,_ZN8sys_scan9GPGSigner9sign_fileERKNS_6ConfigE
FN:123,129,_ZNK8sys_scan9GPGSigner17canonicalize_pathERKNSt7__cxx1112basic_stringIcSt11char_traitsIcESaIcEEE
FN:44,46,_ZZN8sys_scan9GPGSigner9sign_fileERKNS_6ConfigEENKUlRKNSt7__cxx1112basic_stringIcSt11char_traitsIcESaIcEEEE_clESB_
FN:82,121,_ZNK8sys_scan9GPGSigner16validate_gpg_keyERKNSt7__cxx1112basic_stringIcSt11char_traitsIcESaIcEEE
FNDA:41,_ZN8sys_scan9GPGSigner9sign_fileERKNS_6ConfigE
FNDA:37,_ZNK8sys_scan9GPGSigner17canonicalize_pathERKNSt7__cxx1112basic_stringIcSt11char_traitsIcESaIcEEE
FNDA:0,_ZZN8sys_scan9GPGSigner9sign_fileERKNS_6ConfigEENKUlRKNSt7__cxx1112basic_stringIcSt11char_traitsIcESaIcEEEE_clESB_
FNDA:37,_ZNK8sys_scan9GPGSigner16validate_gpg_keyERKNSt7__cxx1112basic_stringIcSt11char_traitsIcESaIcEEE
FNF:4
FNH:3
DA:12,41
DA:13,41
DA:14,4
DA:17,37
DA:18,0
DA:19,0
DA:23,37
DA:24,37
DA:25,0
DA:26,0
DA:30,37
DA:31,36
DA:34,1
DA:35,1
DA:37,1
DA:38,0
DA:39,0
DA:40,1
DA:43,0
DA:44,0
DA:45,0
DA:46,0
DA:48,0
DA:49,0
DA:50,0
DA:51,0
DA:52,0
DA:53,0
DA:54,0
DA:55,0
DA:56,0
DA:57,0
DA:58,0
DA:61,0
DA:63,0
DA:64,0
DA:65,0
DA:67,1
DA:68,1
DA:69,0
DA:70,1
DA:73,1
DA:74,1
DA:75,1
DA:79,0
DA:80,37
DA:82,37
DA:83,37
DA:84,0
DA:85,0
DA:89,37
DA:90,10
DA:91,10
DA:96,27
DA:97,1060
DA:98,1058
DA:99,25
DA:100,25
DA:104,27
DA:105,1
DA:109,26
DA:110,26
DA:111,26
DA:112,0
DA:113,0
DA:114,0
DA:115,0
DA:117,0
DA:119,26
DA:120,26
DA:123,37
DA:125,37
DA:126,64
DA:128,5
LF:74
LH:40
end_of_record
TN:
SF:/home/joseph-mazzini/sys-scan-graph/src/core/JSONWriter.cpp
FN:133,133,_ZZN8sys_scan12_GLOBAL__N_1L15build_canonicalERKNS_6ReportExxmmxRKNSt7__cxx1112basic_stringIcSt11char_traitsIcESaIcEEExNSt6chrono10time_pointINSC_3_V212system_clockENSC_8durationIlSt5ratioILl1ELl1000000000EEEEEESK_RKSt3mapIS9_mSt4lessIS9_ESaISt4pairISA_mEEEST_RKNS0_8HostMetaERKNS_6ConfigEENKUlPKNS_7FindingES12_E_clES12_S12_
FN:133,133,_ZZN8sys_scan12_GLOBAL__N_1L15build_canonicalERKNS_6ReportExxmmxRKNSt7__cxx1112basic_stringIcSt11char_traitsIcESaIcEEExNSt6chrono10time_pointINSC_3_V212system_clockENSC_8durationIlSt5ratioILl1ELl1000000000EEEEEESK_RKSt3mapIS9_mSt4lessIS9_ESaISt4pairISA_mEEEST_RKNS0_8HostMetaERKNS_6ConfigEENKUlRT_RT0_E_clISO_IS9_S9_ES16_EEDaS11_S13_
FN:165,178,_ZNK8sys_scan10JSONWriter5writeB5cxx11ERKNS_6ReportERKNS_6ConfigE
FN:175,175,_ZZNK8sys_scan10JSONWriter5writeB5cxx11ERKNS_6ReportERKNS_6ConfigEENKUlRKNSt7__cxx1112basic_stringIcSt11char_traitsIcESaIcEEEE_clESE_
FN:175,175,_ZZZNK8sys_scan10JSONWriter5writeB5cxx11ERKNS_6ReportERKNS_6ConfigEENKUlRKNSt7__cxx1112basic_stringIcSt11char_traitsIcESaIcEEEE_clESE_ENKUliE_clEi
FN:38,38,_ZN8sys_scan12_GLOBAL__N_18CanonValC2Ev
FN:39,39,_ZN8sys_scan12_GLOBAL__N_18CanonValC2ENS1_4TypeE
FN:47,52,_ZN8sys_scan12_GLOBAL__N_1L17collect_host_metaEv
FN:54,65,_ZN8sys_scan12_GLOBAL__N_1L20apply_meta_overridesERNS0_8HostMetaE
FN:55,55,_ZZN8sys_scan12_GLOBAL__N_1L20apply_meta_overridesERNS0_8HostMetaEENKUlPKcE_clES4_
FN:67,67,_ZN8sys_scan12_GLOBAL__N_1L10canon_emitERKNS0_8CanonValERSo
FN:68,161,_ZN8sys_scan12_GLOBAL__N_1L15build_canonicalERKNS_6ReportExxmmxRKNSt7__cxx1112basic_stringIcSt11char_traitsIcESaIcEEExNSt6chrono10time_pointINSC_3_V212system_clockENSC_8durationIlSt5ratioILl1ELl1000000000EEEEEESK_RKSt3mapIS9_mSt4lessIS9_ESaISt4pairISA_mEEEST_RKNS0_8HostMetaERKNS_6ConfigE
FN:68,161,_ZZN8sys_scan12_GLOBAL__N_1L15build_canonicalERKNS_6ReportExxmmxRKNSt7__cxx1112basic_stringIcSt11char_traitsIcESaIcEEExNSt6chrono10time_pointINSC_3_V212system_clockENSC_8durationIlSt5ratioILl1ELl1000000000EEEEEESK_RKSt3mapIS9_mSt4lessIS9_ESaISt4pairISA_mEEEST_RKNS0_8HostMetaERKNS_6ConfigEENKUlRNS0_8CanonValESB_SB_E_clES11_SB_SB_
FN:68,161,_ZZN8sys_scan12_GLOBAL__N_1L15build_canonicalERKNS_6ReportExxmmxRKNSt7__cxx1112basic_stringIcSt11char_traitsIcESaIcEEExNSt6chrono10time_pointINSC_3_V212system_clockENSC_8durationIlSt5ratioILl1ELl1000000000EEEEEESK_RKSt3mapIS9_mSt4lessIS9_ESaISt4pairISA_mEEEST_RKNS0_8HostMetaERKNS_6ConfigEENKUlRNS0_8CanonValESB_xE_clES11_SB_x
FN:74,74,_ZZN8sys_scan12_GLOBAL__N_1L15build_canonicalERKNS_6ReportExxmmxRKNSt7__cxx1112basic_stringIcSt11char_traitsIcESaIcEEExNSt6chrono10time_pointINSC_3_V212system_clockENSC_8durationIlSt5ratioILl1ELl1000000000EEEEEESK_RKSt3mapIS9_mSt4lessIS9_ESaISt4pairISA_mEEEST_RKNS0_8HostMetaERKNS_6ConfigEENKUlPKcS11_E_clES11_S11_
FN:89,89,_ZZN8sys_scan12_GLOBAL__N_1L15build_canonicalERKNS_6ReportExxmmxRKNSt7__cxx1112basic_stringIcSt11char_traitsIcESaIcEEExNSt6chrono10time_pointINSC_3_V212system_clockENSC_8durationIlSt5ratioILl1ELl1000000000EEEEEESK_RKSt3mapIS9_mSt4lessIS9_ESaISt4pairISA_mEEEST_RKNS0_8HostMetaERKNS_6ConfigEENKUlSB_bE_clESB_b
FN:90,90,_ZZN8sys_scan12_GLOBAL__N_1L15build_canonicalERKNS_6ReportExxmmxRKNSt7__cxx1112basic_stringIcSt11char_traitsIcESaIcEEExNSt6chrono10time_pointINSC_3_V212system_clockENSC_8durationIlSt5ratioILl1ELl1000000000EEEEEESK_RKSt3mapIS9_mSt4lessIS9_ESaISt4pairISA_mEEEST_RKNS0_8HostMetaERKNS_6ConfigEENKUlSB_xE_clESB_x
FN:91,91,_ZZN8sys_scan12_GLOBAL__N_1L15build_canonicalERKNS_6ReportExxmmxRKNSt7__cxx1112basic_stringIcSt11char_traitsIcESaIcEEExNSt6chrono10time_pointINSC_3_V212system_clockENSC_8durationIlSt5ratioILl1ELl1000000000EEEEEESK_RKSt3mapIS9_mSt4lessIS9_ESaISt4pairISA_mEEEST_RKNS0_8HostMetaERKNS_6ConfigEENKUlSB_SB_E_clESB_SB_
FNDA:11,_ZZN8sys_scan12_GLOBAL__N_1L15build_canonicalERKNS_6ReportExxmmxRKNSt7__cxx1112basic_stringIcSt11char_traitsIcESaIcEEExNSt6chrono10time_pointINSC_3_V212system_clockENSC_8durationIlSt5ratioILl1ELl1000000000EEEEEESK_RKSt3mapIS9_mSt4lessIS9_ESaISt4pairISA_mEEEST_RKNS0_8HostMetaERKNS_6ConfigEENKUlPKNS_7FindingES12_E_clES12_S12_
FNDA:68221,_ZZN8sys_scan12_GLOBAL__N_1L15build_canonicalERKNS_6ReportExxmmxRKNSt7__cxx1112basic_stringIcSt11char_traitsIcESaIcEEExNSt6chrono10time_pointINSC_3_V212system_clockENSC_8durationIlSt5ratioILl1ELl1000000000EEEEEESK_RKSt3mapIS9_mSt4lessIS9_ESaISt4pairISA_mEEEST_RKNS0_8HostMetaERKNS_6ConfigEENKUlRT_RT0_E_clISO_IS9_S9_ES16_EEDaS11_S13_
FNDA:72,_ZNK8sys_scan10JSONWriter5writeB5cxx11ERKNS_6ReportERKNS_6ConfigE
FNDA:4,_ZZNK8sys_scan10JSONWriter5writeB5cxx11ERKNS_6ReportERKNS_6ConfigEENKUlRKNSt7__cxx1112basic_stringIcSt11char_traitsIcESaIcEEEE_clESE_
FNDA:7187,_ZZZNK8sys_scan10JSONWriter5writeB5cxx11ERKNS_6ReportERKNS_6ConfigEENKUlRKNSt7__cxx1112basic_stringIcSt11char_traitsIcESaIcEEEE_clESE_ENKUliE_clEi
FNDA:165058,_ZN8sys_scan12_GLOBAL__N_18CanonValC2Ev
FNDA:38612,_ZN8sys_scan12_GLOBAL__N_18CanonValC2ENS1_4TypeE
FNDA:72,_ZN8sys_scan12_GLOBAL__N_1L17collect_host_metaEv
FNDA:72,_ZN8sys_scan12_GLOBAL__N_1L20apply_meta_overridesERNS0_8HostMetaE
FNDA:576,_ZZN8sys_scan12_GLOBAL__N_1L20apply_meta_overridesERNS0_8HostMetaEENKUlPKcE_clES4_
FNDA:172160,_ZN8sys_scan12_GLOBAL__N_1L10canon_emitERKNS0_8CanonValERSo
FNDA:72,_ZN8sys_scan12_GLOBAL__N_1L15build_canonicalERKNS_6ReportExxmmxRKNSt7__cxx1112basic_stringIcSt11char_traitsIcESaIcEEExNSt6chrono10time_pointINSC_3_V212system_clockENSC_8durationIlSt5ratioILl1ELl1000000000EEEEEESK_RKSt3mapIS9_mSt4lessIS9_ESaISt4pairISA_mEEEST_RKNS0_8HostMetaERKNS_6ConfigE
FNDA:142964,_ZZN8sys_scan12_GLOBAL__N_1L15build_canonicalERKNS_6ReportExxmmxRKNSt7__cxx1112basic_stringIcSt11char_traitsIcESaIcEEExNSt6chrono10time_pointINSC_3_V212system_clockENSC_8durationIlSt5ratioILl1ELl1000000000EEEEEESK_RKSt3mapIS9_mSt4lessIS9_ESaISt4pairISA_mEEEST_RKNS0_8HostMetaERKNS_6ConfigEENKUlRNS0_8CanonValESB_SB_E_clES11_SB_SB_
FNDA:1632,_ZZN8sys_scan12_GLOBAL__N_1L15build_canonicalERKNS_6ReportExxmmxRKNSt7__cxx1112basic_stringIcSt11char_traitsIcESaIcEEExNSt6chrono10time_pointINSC_3_V212system_clockENSC_8durationIlSt5ratioILl1ELl1000000000EEEEEESK_RKSt3mapIS9_mSt4lessIS9_ESaISt4pairISA_mEEEST_RKNS0_8HostMetaERKNS_6ConfigEENKUlRNS0_8CanonValESB_xE_clES11_SB_x
FNDA:504,_ZZN8sys_scan12_GLOBAL__N_1L15build_canonicalERKNS_6ReportExxmmxRKNSt7__cxx1112basic_stringIcSt11char_traitsIcESaIcEEExNSt6chrono10time_pointINSC_3_V212system_clockENSC_8durationIlSt5ratioILl1ELl1000000000EEEEEESK_RKSt3mapIS9_mSt4lessIS9_ESaISt4pairISA_mEEEST_RKNS0_8HostMetaERKNS_6ConfigEENKUlPKcS11_E_clES11_S11_
FNDA:1584,_ZZN8sys_scan12_GLOBAL__N_1L15build_canonicalERKNS_6ReportExxmmxRKNSt7__cxx1112basic_stringIcSt11char_traitsIcESaIcEEExNSt6chrono10time_pointINSC_3_V212system_clockENSC_8durationIlSt5ratioILl1ELl1000000000EEEEEESK_RKSt3mapIS9_mSt4lessIS9_ESaISt4pairISA_mEEEST_RKNS0_8HostMetaERKNS_6ConfigEENKUlSB_bE_clESB_b
FNDA:288,_ZZN8sys_scan12_GLOBAL__N_1L15build_canonicalERKNS_6ReportExxmmxRKNSt7__cxx1112basic_stringIcSt11char_traitsIcESaIcEEExNSt6chrono10time_pointINSC_3_V212system_clockENSC_8durationIlSt5ratioILl1ELl1000000000EEEEEESK_RKSt3mapIS9_mSt4lessIS9_ESaISt4pairISA_mEEEST_RKNS0_8HostMetaERKNS_6ConfigEENKUlSB_xE_clESB_x
FNDA:144,_ZZN8sys_scan12_GLOBAL__N_1L15build_canonicalERKNS_6ReportExxmmxRKNSt7__cxx1112basic_stringIcSt11char_traitsIcESaIcEEExNSt6chrono10time_pointINSC_3_V212system_clockENSC_8durationIlSt5ratioILl1ELl1000000000EEEEEESK_RKSt3mapIS9_mSt4lessIS9_ESaISt4pairISA_mEEEST_RKNS0_8HostMetaERKNS_6ConfigEENKUlSB_SB_E_clESB_SB_
FNF:18
FNH:18
DA:38,165058
DA:39,38612
DA:47,72
DA:49,1008
DA:50,72
DA:52,5520
DA:54,72
DA:55,576
DA:56,72
DA:57,72
DA:58,72
DA:59,72
DA:60,72
DA:61,72
DA:62,72
DA:63,72
DA:65,72
DA:67,344262
DA:68,147236
DA:70,92
DA:71,76
DA:72,76
DA:74,504
DA:75,72
DA:76,288
DA:77,288
DA:78,288
DA:79,288
DA:80,216
DA:81,216
DA:82,144
DA:83,216
DA:84,144
DA:87,72
DA:88,72
DA:89,1656
DA:90,360
DA:91,216
DA:92,144
DA:93,144
DA:94,144
DA:95,144
DA:96,144
DA:97,144
DA:98,144
DA:99,144
DA:100,144
DA:101,144
DA:102,144
DA:103,144
DA:104,144
DA:105,144
DA:106,144
DA:107,144
DA:108,144
DA:109,144
DA:110,144
DA:111,144
DA:112,144
DA:113,144
DA:114,144
DA:115,144
DA:116,144
DA:117,144
DA:118,144
DA:119,144
DA:120,144
DA:121,72
DA:123,72
DA:124,0
DA:125,0
DA:126,0
DA:127,0
DA:128,0
DA:129,0
DA:130,0
DA:131,360
DA:132,504
DA:133,416817
DA:134,509
DA:135,2222
DA:136,2150
DA:137,13630
DA:139,72
DA:140,0
DA:141,0
DA:142,0
DA:143,0
DA:145,0
DA:146,0
DA:147,0
DA:149,0
DA:150,0
DA:151,0
DA:152,0
DA:158,92
DA:159,76
DA:160,76
DA:161,144
DA:165,72
DA:167,69970
DA:168,2087
DA:169,76
DA:171,6
DA:172,6
DA:173,6
DA:174,1887
DA:175,154409
DA:176,58
DA:177,54
DA:178,72
LF:111
LH:93
end_of_record
TN:
SF:/home/joseph-mazzini/sys-scan-graph/src/core/JsonUtil.cpp
FN:6,6,_ZN8sys_scan8jsonutil6escapeERKNSt7__cxx1112basic_stringIcSt11char_traitsIcESaIcEEE
FN:7,7,_ZN8sys_scan8jsonutil11time_to_isoB5cxx11ENSt6chrono10time_pointINS1_3_V212system_clockENS1_8durationIlSt5ratioILl1ELl1000000000EEEEEE
FNDA:290625,_ZN8sys_scan8jsonutil6escapeERKNSt7__cxx1112basic_stringIcSt11char_traitsIcESaIcEEE
FNDA:1009,_ZN8sys_scan8jsonutil11time_to_isoB5cxx11ENSt6chrono10time_pointINS1_3_V212system_clockENS1_8durationIlSt5ratioILl1ELl1000000000EEEEEE
FNF:2
FNH:2
DA:6,24290497
DA:7,3027
LF:2
LH:2
end_of_record
TN:
SF:/home/joseph-mazzini/sys-scan-graph/src/core/Logging.h
FN:12,12,_ZN8sys_scan6Logger8instanceEv
FN:13,13,_ZN8sys_scan6Logger9set_levelENS_8LogLevelE
FN:14,14,_ZNK8sys_scan6Logger5levelEv
FN:16,22,_ZN8sys_scan6Logger3logENS_8LogLevelERKNSt7__cxx1112basic_stringIcSt11char_traitsIcESaIcEEE
FN:23,23,_ZN8sys_scan6Logger5errorERKNSt7__cxx1112basic_stringIcSt11char_traitsIcESaIcEEE
FN:24,24,_ZN8sys_scan6Logger4warnERKNSt7__cxx1112basic_stringIcSt11char_traitsIcESaIcEEE
FN:25,25,_ZN8sys_scan6Logger4infoERKNSt7__cxx1112basic_stringIcSt11char_traitsIcESaIcEEE
FN:26,26,_ZN8sys_scan6Logger5debugERKNSt7__cxx1112basic_stringIcSt11char_traitsIcESaIcEEE
FN:27,27,_ZN8sys_scan6Logger5traceERKNSt7__cxx1112basic_stringIcSt11char_traitsIcESaIcEEE
FN:31,40,_ZN8sys_scan6Logger6prefixB5cxx11ENS_8LogLevelE
FNDA:579,_ZN8sys_scan6Logger8instanceEv
FNDA:55,_ZN8sys_scan6Logger9set_levelENS_8LogLevelE
FNDA:12,_ZNK8sys_scan6Logger5levelEv
FNDA:1663,_ZN8sys_scan6Logger3logENS_8LogLevelERKNSt7__cxx1112basic_stringIcSt11char_traitsIcESaIcEEE
FNDA:2,_ZN8sys_scan6Logger5errorERKNSt7__cxx1112basic_stringIcSt11char_traitsIcESaIcEEE
FNDA:2,_ZN8sys_scan6Logger4warnERKNSt7__cxx1112basic_stringIcSt11char_traitsIcESaIcEEE
FNDA:1138,_ZN8sys_scan6Logger4infoERKNSt7__cxx1112basic_stringIcSt11char_traitsIcESaIcEEE
FNDA:507,_ZN8sys_scan6Logger5debugERKNSt7__cxx1112basic_stringIcSt11char_traitsIcESaIcEEE
FNDA:2,_ZN8sys_scan6Logger5traceERKNSt7__cxx1112basic_stringIcSt11char_traitsIcESaIcEEE
FNDA:1149,_ZN8sys_scan6Logger6prefixB5cxx11ENS_8LogLevelE
FNF:10
FNH:10
DA:12,579
DA:13,55
DA:14,12
DA:16,1663
DA:17,1663
DA:18,1149
DA:19,1149
DA:20,1149
DA:21,1149
DA:22,1663
DA:23,2
DA:24,2
DA:25,1138
DA:26,507
DA:27,2
DA:31,1149
DA:32,1149
DA:33,15
DA:34,9
DA:35,3411
DA:36,6
DA:37,6
DA:39,0
LF:23
LH:22
end_of_record
TN:
SF:/home/joseph-mazzini/sys-scan-graph/src/core/OutputWriter.cpp
FN:125,166,_ZNK8sys_scan12OutputWriter11format_jsonERKNSt7__cxx1112basic_stringIcSt11char_traitsIcESaIcEEERKNS_6ConfigE
FN:13,30,_ZN8sys_scan12OutputWriter12write_reportERKNS_6ReportERKNS_6ConfigE
FN:32,123,_ZN8sys_scan12OutputWriter14write_env_fileERKNS_6ConfigE
FNDA:55,_ZNK8sys_scan12OutputWriter11format_jsonERKNSt7__cxx1112basic_stringIcSt11char_traitsIcESaIcEEERKNS_6ConfigE
FNDA:55,_ZN8sys_scan12OutputWriter12write_reportERKNS_6ReportERKNS_6ConfigE
FNDA:2,_ZN8sys_scan12OutputWriter14write_env_fileERKNS_6ConfigE
FNF:3
FNH:3
DA:13,55
DA:15,55
DA:16,55
DA:18,55
DA:19,1
DA:21,54
DA:22,54
DA:23,2
DA:24,2
DA:26,52
DA:27,54
DA:29,53
DA:30,55
DA:32,2
DA:33,2
DA:34,0
DA:38,2
DA:39,1
DA:42,1
DA:43,1
DA:44,0
DA:45,0
DA:48,1
DA:51,1
DA:52,1
DA:56,1
DA:57,1
DA:82,1
DA:86,1
DA:121,1
DA:122,1
DA:123,1
DA:125,55
DA:126,55
DA:128,2
DA:129,2
DA:130,2
DA:132,95188
DA:133,95186
DA:135,95186
DA:136,8358
DA:137,8358
DA:138,86828
DA:139,42279
DA:140,704
DA:141,704
DA:142,704
DA:143,1408
DA:144,41575
DA:145,704
DA:146,704
DA:147,704
DA:148,704
DA:149,40871
DA:150,2204
DA:151,2204
DA:152,4408
DA:153,38667
DA:154,2263
DA:155,2263
DA:157,36404
DA:160,44549
DA:163,2
DA:164,2
DA:165,53
LF:65
LH:62
end_of_record
TN:
SF:/home/joseph-mazzini/sys-scan-graph/src/core/Privilege.cpp
FN:14,34,_ZN8sys_scan16log_capabilitiesERKNSt7__cxx1112basic_stringIcSt11char_traitsIcESaIcEEE
FN:36,69,_ZN8sys_scan17drop_capabilitiesEb
FN:71,109,_ZN8sys_scan21apply_seccomp_profileEv
FN:84,84,_ZZN8sys_scan21apply_seccomp_profileEvENKUliE_clEi
FNDA:0,_ZN8sys_scan16log_capabilitiesERKNSt7__cxx1112basic_stringIcSt11char_traitsIcESaIcEEE
FNDA:0,_ZN8sys_scan17drop_capabilitiesEb
FNDA:0,_ZN8sys_scan21apply_seccomp_profileEv
FNDA:0,_ZZN8sys_scan21apply_seccomp_profileEvENKUliE_clEi
FNF:4
FNH:0
DA:14,0
DA:16,0
DA:17,0
DA:18,0
DA:19,0
DA:22,0
DA:23,0
DA:24,0
DA:25,0
DA:27,0
DA:30,0
DA:36,0
DA:40,0
DA:41,0
DA:42,0
DA:45,0
DA:46,0
DA:47,0
DA:48,0
DA:49,0
DA:50,0
DA:51,0
DA:53,0
DA:54,0
DA:55,0
DA:58,0
DA:59,0
DA:62,0
DA:65,0
DA:71,0
DA:74,0
DA:76,0
DA:79,0
DA:80,0
DA:81,0
DA:82,0
DA:84,0
DA:85,0
DA:91,0
DA:92,0
DA:93,0
DA:94,0
DA:96,0
DA:97,0
DA:98,0
DA:99,0
DA:101,0
DA:102,0
DA:104,0
LF:49
LH:0
end_of_record
TN:
SF:/home/joseph-mazzini/sys-scan-graph/src/core/Report.cpp
FN:16,31,_ZN8sys_scan6Report11add_findingERKNSt7__cxx1112basic_stringIcSt11char_traitsIcESaIcEEENS_7FindingE
FN:18,18,_ZZN8sys_scan6Report11add_findingERKNSt7__cxx1112basic_stringIcSt11char_traitsIcESaIcEEENS_7FindingEENKUlRT_E_clINS_10ScanResultEEEDaSB_
FN:33,36,_ZN8sys_scan6Report10add_resultENS_10ScanResultE
FN:38,44,_ZN8sys_scan6Report11end_scannerERKNSt7__cxx1112basic_stringIcSt11char_traitsIcESaIcEEE
FN:40,40,_ZZN8sys_scan6Report11end_scannerERKNSt7__cxx1112basic_stringIcSt11char_traitsIcESaIcEEEENKUlRT_E_clINS_10ScanResultEEEDaSA_
FN:46,58,_ZN8sys_scanL16warn_code_stringENS_8WarnCodeE
FN:60,66,_ZN8sys_scan6Report11add_warningERKNSt7__cxx1112basic_stringIcSt11char_traitsIcESaIcEEENS_8WarnCodeES8_
FN:68,71,_ZN8sys_scan6Report9add_errorERKNSt7__cxx1112basic_stringIcSt11char_traitsIcESaIcEEES8_
FN:73,78,_ZNK8sys_scan6Report14total_findingsEv
FN:8,14,_ZN8sys_scan6Report13start_scannerERKNSt7__cxx1112basic_stringIcSt11char_traitsIcESaIcEEE
FNDA:19384,_ZN8sys_scan6Report11add_findingERKNSt7__cxx1112basic_stringIcSt11char_traitsIcESaIcEEENS_7FindingE
FNDA:30737,_ZZN8sys_scan6Report11add_findingERKNSt7__cxx1112basic_stringIcSt11char_traitsIcESaIcEEENS_7FindingEENKUlRT_E_clINS_10ScanResultEEEDaSB_
FNDA:278,_ZN8sys_scan6Report10add_resultENS_10ScanResultE
FNDA:252,_ZN8sys_scan6Report11end_scannerERKNSt7__cxx1112basic_stringIcSt11char_traitsIcESaIcEEE
FNDA:1583,_ZZN8sys_scan6Report11end_scannerERKNSt7__cxx1112basic_stringIcSt11char_traitsIcESaIcEEEENKUlRT_E_clINS_10ScanResultEEEDaSA_
FNDA:2301,_ZN8sys_scanL16warn_code_stringENS_8WarnCodeE
FNDA:2301,_ZN8sys_scan6Report11add_warningERKNSt7__cxx1112basic_stringIcSt11char_traitsIcESaIcEEENS_8WarnCodeES8_
FNDA:1,_ZN8sys_scan6Report9add_errorERKNSt7__cxx1112basic_stringIcSt11char_traitsIcESaIcEEES8_
FNDA:1,_ZNK8sys_scan6Report14total_findingsEv
FNDA:252,_ZN8sys_scan6Report13start_scannerERKNSt7__cxx1112basic_stringIcSt11char_traitsIcESaIcEEE
FNF:10
FNH:10
DA:8,252
DA:9,252
DA:10,252
DA:11,252
DA:12,252
DA:13,252
DA:14,252
DA:16,19384
DA:17,19384
DA:18,50366
DA:19,19629
DA:21,19625
DA:22,10
DA:25,19625
DA:26,19625
DA:28,19168
DA:29,19168
DA:31,19629
DA:33,278
DA:34,278
DA:35,278
DA:36,278
DA:38,252
DA:39,252
DA:40,1835
DA:41,252
DA:42,252
DA:44,252
DA:46,2301
DA:47,2301
DA:48,0
DA:49,0
DA:50,0
DA:51,6900
DA:52,0
DA:53,0
DA:54,0
DA:55,0
DA:56,3
DA:60,2301
DA:61,2301
DA:63,2301
DA:64,2301
DA:65,2301
DA:66,2301
DA:68,1
DA:69,1
DA:70,1
DA:71,1
DA:73,1
DA:74,1
DA:75,1
DA:76,2
DA:77,1
DA:78,1
LF:55
LH:48
end_of_record
TN:
SF:/home/joseph-mazzini/sys-scan-graph/src/core/Report.h
FN:35,35,_ZN8sys_scan6Report13attach_configERKNS_6ConfigE
FN:37,37,_ZNK8sys_scan6Report7resultsEv
FN:38,38,_ZNK8sys_scan6Report8warningsB5cxx11Ev
FN:39,39,_ZNK8sys_scan6Report6errorsB5cxx11Ev
FN:51,51,_ZNK8sys_scan6Report18compliance_summaryB5cxx11Ev
FN:52,52,_ZN8sys_scan6Report21set_compliance_metricERKNSt7__cxx1112basic_stringIcSt11char_traitsIcESaIcEEES8_S8_
FN:53,53,_ZN8sys_scan6Report19add_partial_warningERKNSt7__cxx1112basic_stringIcSt11char_traitsIcESaIcEEES8_
FN:54,54,_ZNK8sys_scan6Report16partial_warningsB5cxx11Ev
FNDA:43,_ZN8sys_scan6Report13attach_configERKNS_6ConfigE
FNDA:290,_ZNK8sys_scan6Report7resultsEv
FNDA:72,_ZNK8sys_scan6Report8warningsB5cxx11Ev
FNDA:72,_ZNK8sys_scan6Report6errorsB5cxx11Ev
FNDA:73,_ZNK8sys_scan6Report18compliance_summaryB5cxx11Ev
FNDA:35,_ZN8sys_scan6Report21set_compliance_metricERKNSt7__cxx1112basic_stringIcSt11char_traitsIcESaIcEEES8_S8_
FNDA:1,_ZN8sys_scan6Report19add_partial_warningERKNSt7__cxx1112basic_stringIcSt11char_traitsIcESaIcEEES8_
FNDA:72,_ZNK8sys_scan6Report16partial_warningsB5cxx11Ev
FNF:8
FNH:8
DA:35,43
DA:37,290
DA:38,72
DA:39,72
DA:51,73
DA:52,35
DA:53,1
DA:54,72
LF:8
LH:8
end_of_record
TN:
SF:/home/joseph-mazzini/sys-scan-graph/src/core/RuleEngine.cpp
FN:104,104,_ZZNK8sys_scan10RuleEngine5applyERKNSt7__cxx1112basic_stringIcSt11char_traitsIcESaIcEEERNS_7FindingEENKUlS8_E_clES8_
FN:17,17,_ZN8sys_scan11rule_engineEv
FN:22,72,_ZN8sys_scan10RuleEngine8load_dirERKNSt7__cxx1112basic_stringIcSt11char_traitsIcESaIcEEERS6_
FN:56,56,_ZZN8sys_scan10RuleEngine8load_dirERKNSt7__cxx1112basic_stringIcSt11char_traitsIcESaIcEEERS6_ENKUlRT_RT0_E_clISt4pairIiNS_13RuleConditionEESI_EEDaSB_SD_
FN:74,76,_ZNK8sys_scan10RuleEngine19warnings_aggregatedB5cxx11Ev
FN:78,91,_ZN8sys_scanL15match_conditionERKNS_13RuleConditionERKNS_7FindingE
FN:93,114,_ZNK8sys_scan10RuleEngine5applyERKNSt7__cxx1112basic_stringIcSt11char_traitsIcESaIcEEERNS_7FindingE
FNDA:24,_ZZNK8sys_scan10RuleEngine5applyERKNSt7__cxx1112basic_stringIcSt11char_traitsIcESaIcEEERNS_7FindingEENKUlS8_E_clES8_
FNDA:63,_ZN8sys_scan11rule_engineEv
FNDA:53,_ZN8sys_scan10RuleEngine8load_dirERKNSt7__cxx1112basic_stringIcSt11char_traitsIcESaIcEEERS6_
FNDA:187,_ZZN8sys_scan10RuleEngine8load_dirERKNSt7__cxx1112basic_stringIcSt11char_traitsIcESaIcEEERS6_ENKUlRT_RT0_E_clISt4pairIiNS_13RuleConditionEESI_EEDaSB_SD_
FNDA:2,_ZNK8sys_scan10RuleEngine19warnings_aggregatedB5cxx11Ev
FNDA:54,_ZN8sys_scanL15match_conditionERKNS_13RuleConditionERKNS_7FindingE
FNDA:27,_ZNK8sys_scan10RuleEngine5applyERKNSt7__cxx1112basic_stringIcSt11char_traitsIcESaIcEEERNS_7FindingE
FNF:7
FNH:7
DA:17,63
DA:22,53
DA:23,55
DA:24,51
DA:25,1123
DA:26,1073
DA:27,1122
DA:28,51
DA:29,1116
DA:30,1068
DA:31,1065
DA:32,4499
DA:33,3434
DA:34,3375
DA:35,2306
DA:36,2294
DA:37,2245
DA:38,2234
DA:41,99
DA:42,99
DA:43,99
DA:44,99
DA:45,99
DA:46,99
DA:47,99
DA:48,99
DA:50,3375
DA:51,1065
DA:53,1060
DA:54,14
DA:55,64
DA:56,201
DA:57,64
DA:58,1060
DA:59,1043
DA:60,1043
DA:61,1063
DA:64,2154
DA:65,1059
DA:66,1
DA:69,1060
DA:70,1080
DA:71,51
DA:72,100
DA:74,2
DA:75,9
DA:76,2
DA:78,54
DA:79,54
DA:80,54
DA:81,54
DA:83,1
DA:86,54
DA:87,52
DA:88,29
DA:89,29
DA:90,24
DA:91,54
DA:93,27
DA:94,27
DA:95,74
DA:96,48
DA:97,46
DA:98,74
DA:99,45
DA:100,20
DA:101,20
DA:102,24
DA:104,211
DA:105,12
DA:106,12
DA:107,12
DA:108,29
DA:110,40
DA:111,12
DA:112,12
LF:76
LH:76
end_of_record
TN:
SF:/home/joseph-mazzini/sys-scan-graph/src/core/RuleEngine.h
FN:47,47,_ZNK8sys_scan10RuleEngine8warningsEv
FNDA:49,_ZNK8sys_scan10RuleEngine8warningsEv
FNF:1
FNH:1
DA:47,49
LF:1
LH:1
end_of_record
TN:
SF:/home/joseph-mazzini/sys-scan-graph/src/core/RuleEngineInitializer.cpp
FN:13,53,_ZN8sys_scan21RuleEngineInitializer10initializeERKNS_6ConfigE
FN:131,256,_ZNK8sys_scan21RuleEngineInitializer25validate_single_rule_fileERKNSt10filesystem7__cxx114pathERSt13unordered_setINSt7__cxx1112basic_stringIcSt11char_traitsIcESaIcEEESt4hashISC_ESt8equal_toISC_ESaISC_EE
FN:179,179,_ZZNK8sys_scan21RuleEngineInitializer25validate_single_rule_fileERKNSt10filesystem7__cxx114pathERSt13unordered_setINSt7__cxx1112basic_stringIcSt11char_traitsIcESaIcEEESt4hashISC_ESt8equal_toISC_ESaISC_EEENKUlhE_clEh
FN:180,180,_ZZNK8sys_scan21RuleEngineInitializer25validate_single_rule_fileERKNSt10filesystem7__cxx114pathERSt13unordered_setINSt7__cxx1112basic_stringIcSt11char_traitsIcESaIcEEESt4hashISC_ESt8equal_toISC_ESaISC_EEENKUlhE0_clEh
FN:212,212,_ZZNK8sys_scan21RuleEngineInitializer25validate_single_rule_fileERKNSt10filesystem7__cxx114pathERSt13unordered_setINSt7__cxx1112basic_stringIcSt11char_traitsIcESaIcEEESt4hashISC_ESt8equal_toISC_ESaISC_EEENKUlhE1_clEh
FN:213,213,_ZZNK8sys_scan21RuleEngineInitializer25validate_single_rule_fileERKNSt10filesystem7__cxx114pathERSt13unordered_setINSt7__cxx1112basic_stringIcSt11char_traitsIcESaIcEEESt4hashISC_ESt8equal_toISC_ESaISC_EEENKUlhE2_clEh
FN:214,214,_ZZNK8sys_scan21RuleEngineInitializer25validate_single_rule_fileERKNSt10filesystem7__cxx114pathERSt13unordered_setINSt7__cxx1112basic_stringIcSt11char_traitsIcESaIcEEESt4hashISC_ESt8equal_toISC_ESaISC_EEENKUlhE3_clEh
FN:215,215,_ZZNK8sys_scan21RuleEngineInitializer25validate_single_rule_fileERKNSt10filesystem7__cxx114pathERSt13unordered_setINSt7__cxx1112basic_stringIcSt11char_traitsIcESaIcEEESt4hashISC_ESt8equal_toISC_ESaISC_EEENKUlhE4_clEh
FN:55,79,_ZNK8sys_scan21RuleEngineInitializer24validate_rules_directoryERKNSt7__cxx1112basic_stringIcSt11char_traitsIcESaIcEEE
FN:81,96,_ZNK8sys_scan21RuleEngineInitializer18check_legacy_rulesEv
FN:98,129,_ZNK8sys_scan21RuleEngineInitializer19validate_rule_filesERKNSt7__cxx1112basic_stringIcSt11char_traitsIcESaIcEEE
FNDA:38,_ZN8sys_scan21RuleEngineInitializer10initializeERKNS_6ConfigE
FNDA:34,_ZNK8sys_scan21RuleEngineInitializer25validate_single_rule_fileERKNSt10filesystem7__cxx114pathERSt13unordered_setINSt7__cxx1112basic_stringIcSt11char_traitsIcESaIcEEESt4hashISC_ESt8equal_toISC_ESaISC_EE
FNDA:36,_ZZNK8sys_scan21RuleEngineInitializer25validate_single_rule_fileERKNSt10filesystem7__cxx114pathERSt13unordered_setINSt7__cxx1112basic_stringIcSt11char_traitsIcESaIcEEESt4hashISC_ESt8equal_toISC_ESaISC_EEENKUlhE_clEh
FNDA:36,_ZZNK8sys_scan21RuleEngineInitializer25validate_single_rule_fileERKNSt10filesystem7__cxx114pathERSt13unordered_setINSt7__cxx1112basic_stringIcSt11char_traitsIcESaIcEEESt4hashISC_ESt8equal_toISC_ESaISC_EEENKUlhE0_clEh
FNDA:1056,_ZZNK8sys_scan21RuleEngineInitializer25validate_single_rule_fileERKNSt10filesystem7__cxx114pathERSt13unordered_setINSt7__cxx1112basic_stringIcSt11char_traitsIcESaIcEEESt4hashISC_ESt8equal_toISC_ESaISC_EEENKUlhE1_clEh
FNDA:335,_ZZNK8sys_scan21RuleEngineInitializer25validate_single_rule_fileERKNSt10filesystem7__cxx114pathERSt13unordered_setINSt7__cxx1112basic_stringIcSt11char_traitsIcESaIcEEESt4hashISC_ESt8equal_toISC_ESaISC_EEENKUlhE2_clEh
FNDA:335,_ZZNK8sys_scan21RuleEngineInitializer25validate_single_rule_fileERKNSt10filesystem7__cxx114pathERSt13unordered_setINSt7__cxx1112basic_stringIcSt11char_traitsIcESaIcEEESt4hashISC_ESt8equal_toISC_ESaISC_EEENKUlhE3_clEh
FNDA:232,_ZZNK8sys_scan21RuleEngineInitializer25validate_single_rule_fileERKNSt10filesystem7__cxx114pathERSt13unordered_setINSt7__cxx1112basic_stringIcSt11char_traitsIcESaIcEEESt4hashISC_ESt8equal_toISC_ESaISC_EEENKUlhE4_clEh
FNDA:34,_ZNK8sys_scan21RuleEngineInitializer24validate_rules_directoryERKNSt7__cxx1112basic_stringIcSt11char_traitsIcESaIcEEE
FNDA:21,_ZNK8sys_scan21RuleEngineInitializer18check_legacy_rulesEv
FNDA:32,_ZNK8sys_scan21RuleEngineInitializer19validate_rule_filesERKNSt7__cxx1112basic_stringIcSt11char_traitsIcESaIcEEE
FNF:11
FNH:11
DA:13,38
DA:14,38
DA:15,4
DA:18,34
DA:19,0
DA:20,0
DA:25,34
DA:26,34
DA:27,32
DA:31,34
DA:32,2
DA:36,32
DA:37,11
DA:41,21
DA:42,21
DA:43,21
DA:44,0
DA:48,21
DA:49,0
DA:52,21
DA:53,34
DA:55,34
DA:56,34
DA:57,34
DA:58,2
DA:59,2
DA:63,32
DA:64,32
DA:68,0
DA:69,0
DA:70,0
DA:73,0
DA:74,0
DA:75,0
DA:78,0
DA:81,21
DA:82,21
DA:83,21
DA:84,0
DA:85,0
DA:86,0
DA:90,21
DA:91,0
DA:92,0
DA:95,21
DA:98,32
DA:99,32
DA:100,32
DA:101,0
DA:104,32
DA:105,104
DA:106,36
DA:107,36
DA:108,35
DA:109,35
DA:110,34
DA:112,67
DA:115,32
DA:116,0
DA:117,0
DA:120,32
DA:122,55
DA:123,34
DA:124,11
DA:128,21
DA:129,32
DA:131,34
DA:132,34
DA:133,34
DA:134,0
DA:135,0
DA:138,34
DA:139,34
DA:140,34
DA:141,34
DA:142,34
DA:144,915
DA:146,891
DA:147,2
DA:148,2
DA:152,889
DA:153,3
DA:154,3
DA:158,886
DA:159,314
DA:163,886
DA:164,886
DA:165,235
DA:167,3049
DA:168,2816
DA:169,2
DA:170,2
DA:173,235
DA:176,884
DA:177,36
DA:179,72
DA:180,72
DA:183,36
DA:184,0
DA:185,0
DA:189,422
DA:190,386
DA:191,0
DA:192,0
DA:197,36
DA:198,1
DA:199,1
DA:201,35
DA:202,35
DA:203,35
DA:207,883
DA:208,232
DA:209,232
DA:212,1288
DA:213,567
DA:214,567
DA:215,464
DA:218,463
DA:219,463
DA:220,2
DA:221,2
DA:225,230
DA:226,0
DA:227,0
DA:231,230
DA:233,565
DA:234,521
DA:235,0
DA:236,0
DA:240,234
DA:244,24
DA:245,1
DA:246,1
DA:250,23
DA:251,0
DA:252,0
DA:255,23
DA:256,34
LF:138
LH:107
end_of_record
TN:
SF:/home/joseph-mazzini/sys-scan-graph/src/core/ScanContext.h
FN:30,38,_ZN8sys_scan11ScanContextC2ERKNS_6ConfigERNS_6ReportE
FNDA:51,_ZN8sys_scan11ScanContextC2ERKNS_6ConfigERNS_6ReportE
FNF:1
FNH:1
DA:30,51
DA:31,51
DA:33,51
DA:36,51
DA:37,51
DA:38,51
LF:6
LH:6
end_of_record
TN:
SF:/home/joseph-mazzini/sys-scan-graph/src/core/Scanner.h
FN:34,34,_ZN8sys_scan7ScannerD0Ev
FN:34,34,_ZN8sys_scan7ScannerD2Ev
FNDA:0,_ZN8sys_scan7ScannerD0Ev
FNDA:328,_ZN8sys_scan7ScannerD2Ev
FNF:2
FNH:1
DA:34,328
LF:1
LH:1
end_of_record
TN:
SF:/home/joseph-mazzini/sys-scan-graph/src/core/ScannerRegistry.cpp
FN:117,232,_ZN8sys_scan15ScannerRegistry16run_all_parallelERNS_11ScanContextE
FN:120,129,_ZZN8sys_scan15ScannerRegistry16run_all_parallelERNS_11ScanContextEENKUlRKNSt7__cxx1112basic_stringIcSt11char_traitsIcESaIcEEEE_clESA_
FN:158,174,_ZZN8sys_scan15ScannerRegistry16run_all_parallelERNS_11ScanContextEENKUlmE_clEm
FN:164,173,_ZZZN8sys_scan15ScannerRegistry16run_all_parallelERNS_11ScanContextEENKUlmE_clEmENKUlvE_clEv
FN:31,33,_ZN8sys_scan15ScannerRegistry16register_scannerESt10unique_ptrINS_7ScannerESt14default_deleteIS2_EE
FN:35,72,_ZN8sys_scan15ScannerRegistry20register_all_defaultERKNS_6ConfigE
FN:74,83,_ZN8sys_scan15ScannerRegistry7run_allERNS_11ScanContextE
FN:85,115,_ZN8sys_scan15ScannerRegistry18run_all_sequentialERNS_11ScanContextE
FN:88,97,_ZZN8sys_scan15ScannerRegistry18run_all_sequentialERNS_11ScanContextEENKUlRKNSt7__cxx1112basic_stringIcSt11char_traitsIcESaIcEEEE_clESA_
FNDA:6,_ZN8sys_scan15ScannerRegistry16run_all_parallelERNS_11ScanContextE
FNDA:22,_ZZN8sys_scan15ScannerRegistry16run_all_parallelERNS_11ScanContextEENKUlRKNSt7__cxx1112basic_stringIcSt11char_traitsIcESaIcEEEE_clESA_
FNDA:22,_ZZN8sys_scan15ScannerRegistry16run_all_parallelERNS_11ScanContextEENKUlmE_clEm
FNDA:22,_ZZZN8sys_scan15ScannerRegistry16run_all_parallelERNS_11ScanContextEENKUlmE_clEmENKUlvE_clEv
FNDA:320,_ZN8sys_scan15ScannerRegistry16register_scannerESt10unique_ptrINS_7ScannerESt14default_deleteIS2_EE
FNDA:19,_ZN8sys_scan15ScannerRegistry20register_all_defaultERKNS_6ConfigE
FNDA:43,_ZN8sys_scan15ScannerRegistry7run_allERNS_11ScanContextE
FNDA:37,_ZN8sys_scan15ScannerRegistry18run_all_sequentialERNS_11ScanContextE
FNDA:298,_ZZN8sys_scan15ScannerRegistry18run_all_sequentialERNS_11ScanContextEENKUlRKNSt7__cxx1112basic_stringIcSt11char_traitsIcESaIcEEEE_clESA_
FNF:9
FNH:9
DA:31,320
DA:32,320
DA:33,320
DA:35,19
DA:36,19
DA:37,19
DA:38,19
DA:39,19
DA:40,19
DA:41,19
DA:42,19
DA:43,19
DA:44,19
DA:45,19
DA:46,19
DA:47,19
DA:48,19
DA:49,19
DA:50,0
DA:52,19
DA:53,2
DA:59,19
DA:62,19
DA:63,0
DA:64,0
DA:65,0
DA:66,0
DA:68,0
DA:69,0
DA:72,19
DA:74,43
DA:75,43
DA:77,43
DA:78,43
DA:79,6
DA:81,37
DA:83,43
DA:85,37
DA:86,37
DA:87,37
DA:88,298
DA:89,298
DA:90,76
DA:91,76
DA:93,230
DA:94,20
DA:96,227
DA:97,37
DA:98,335
DA:99,298
DA:100,227
DA:101,227
DA:103,227
DA:104,8
DA:105,8
DA:106,8
DA:107,8
DA:108,8
DA:109,8
DA:110,8
DA:111,8
DA:112,227
DA:113,227
DA:115,37
DA:117,6
DA:118,6
DA:119,6
DA:120,22
DA:121,22
DA:122,0
DA:123,0
DA:125,22
DA:126,0
DA:128,22
DA:129,6
DA:137,6
DA:138,6
DA:139,28
DA:140,22
DA:142,6
DA:144,6
DA:145,6
DA:146,6
DA:148,6
DA:155,6
DA:157,6
DA:158,22
DA:159,22
DA:160,22
DA:162,22
DA:163,22
DA:164,44
DA:166,22
DA:167,22
DA:168,0
DA:169,0
DA:170,0
DA:171,0
DA:172,0
DA:173,44
DA:174,22
DA:177,18
DA:178,12
DA:184,6
DA:187,6
DA:188,32
DA:189,26
DA:190,94
DA:191,68
DA:192,68
DA:193,22
DA:194,22
DA:196,22
DA:197,22
DA:199,22
DA:200,10
DA:202,22
DA:203,46
DA:206,26
DA:207,13
DA:210,172
DA:211,146
DA:214,22
DA:215,22
DA:216,22
DA:217,0
DA:218,0
DA:219,0
DA:220,0
DA:221,0
DA:222,0
DA:223,0
DA:224,22
DA:225,22
DA:226,22
DA:227,22
DA:229,22
DA:232,6
LF:138
LH:116
end_of_record
TN:
SF:/home/joseph-mazzini/sys-scan-graph/src/core/ScannerRegistry.h
FNF:0
FNH:0
LF:0
LH:0
end_of_record
TN:
SF:/home/joseph-mazzini/sys-scan-graph/src/core/Severity.h
FN:17,27,_ZN8sys_scan18severity_to_stringENS_8SeverityE
FN:30,40,_ZN8sys_scan20severity_from_stringERKNSt7__cxx1112basic_stringIcSt11char_traitsIcESaIcEEE
FN:42,42,_ZN8sys_scan18severity_rank_enumENS_8SeverityE
FN:43,43,_ZN8sys_scan13severity_rankERKNSt7__cxx1112basic_stringIcSt11char_traitsIcESaIcEEE
FN:46,56,_ZN8sys_scan19severity_risk_scoreENS_8SeverityE
FNDA:52766,_ZN8sys_scan18severity_to_stringENS_8SeverityE
FNDA:38362,_ZN8sys_scan20severity_from_stringERKNSt7__cxx1112basic_stringIcSt11char_traitsIcESaIcEEE
FNDA:95039,_ZN8sys_scan18severity_rank_enumENS_8SeverityE
FNDA:38349,_ZN8sys_scan13severity_rankERKNSt7__cxx1112basic_stringIcSt11char_traitsIcESaIcEEE
FNDA:19167,_ZN8sys_scan19severity_risk_scoreENS_8SeverityE
FNF:5
FNH:5
DA:17,52766
DA:18,52766
DA:19,50122
DA:20,923
DA:21,943
DA:22,773
DA:23,3
DA:24,2
DA:26,0
DA:30,38362
DA:31,38362
DA:32,45106
DA:33,38362
DA:34,37608
DA:35,37606
DA:36,37005
DA:37,36982
DA:38,36979
DA:39,36979
DA:40,38362
DA:42,95039
DA:43,38349
DA:46,19167
DA:47,19167
DA:48,18745
DA:49,143
DA:50,200
DA:51,71
DA:52,0
DA:53,8
DA:55,0
LF:31
LH:28
end_of_record
TN:
SF:/home/joseph-mazzini/sys-scan-graph/src/core/Utils.cpp
FN:10,16,_ZN8sys_scan5utils10read_linesERKNSt7__cxx1112basic_stringIcSt11char_traitsIcESaIcEEE
FN:18,26,_ZN8sys_scan5utils9read_fileERKNSt7__cxx1112basic_stringIcSt11char_traitsIcESaIcEEEm
FN:28,30,_ZN8sys_scan5utils17is_world_writableERKNSt7__cxx1112basic_stringIcSt11char_traitsIcESaIcEEE
FN:32,36,_ZN8sys_scan5utils4trimERKNSt7__cxx1112basic_stringIcSt11char_traitsIcESaIcEEE
FN:38,45,_ZN8sys_scan5utils14read_file_trimERKNSt7__cxx1112basic_stringIcSt11char_traitsIcESaIcEEE
FNDA:7,_ZN8sys_scan5utils10read_linesERKNSt7__cxx1112basic_stringIcSt11char_traitsIcESaIcEEE
FNDA:10,_ZN8sys_scan5utils9read_fileERKNSt7__cxx1112basic_stringIcSt11char_traitsIcESaIcEEEm
FNDA:3,_ZN8sys_scan5utils17is_world_writableERKNSt7__cxx1112basic_stringIcSt11char_traitsIcESaIcEEE
FNDA:10226,_ZN8sys_scan5utils4trimERKNSt7__cxx1112basic_stringIcSt11char_traitsIcESaIcEEE
FNDA:9,_ZN8sys_scan5utils14read_file_trimERKNSt7__cxx1112basic_stringIcSt11char_traitsIcESaIcEEE
FNF:5
FNH:5
DA:10,7
DA:11,7
DA:12,7
DA:13,7
DA:14,18
DA:15,14
DA:16,7
DA:18,10
DA:19,10
DA:20,10
DA:21,9
DA:22,9
DA:23,9
DA:24,9
DA:25,9
DA:26,10
DA:28,3
DA:29,3
DA:32,10226
DA:33,10260
DA:34,10244
DA:35,20452
DA:38,9
DA:39,9
DA:40,11
DA:41,8
DA:42,8
DA:43,10
DA:44,8
DA:45,9
LF:30
LH:30
end_of_record
TN:
SF:/home/joseph-mazzini/sys-scan-graph/src/scanners/AuditdScanner.cpp
FN:14,14,_ZN8sys_scanL8read_allERKNSt10filesystem7__cxx114pathE
FN:16,63,_ZN8sys_scan13AuditdScanner4scanERNS_11ScanContextE
FNDA:0,_ZN8sys_scanL8read_allERKNSt10filesystem7__cxx114pathE
FNDA:14,_ZN8sys_scan13AuditdScanner4scanERNS_11ScanContextE
FNF:2
FNH:1
DA:14,0
DA:16,14
DA:17,14
DA:20,0
DA:21,0
DA:22,0
DA:23,0
DA:24,0
DA:25,0
DA:27,0
DA:28,0
DA:29,0
DA:30,0
DA:31,0
DA:32,0
DA:44,0
DA:46,0
DA:47,0
DA:49,0
DA:50,0
DA:51,0
DA:54,0
DA:55,0
DA:56,0
DA:57,0
DA:60,0
DA:61,0
DA:62,0
DA:63,0
LF:29
LH:2
end_of_record
TN:
SF:/home/joseph-mazzini/sys-scan-graph/src/scanners/AuditdScanner.h
FN:11,11,_ZNK8sys_scan13AuditdScanner4nameB5cxx11Ev
FN:12,12,_ZNK8sys_scan13AuditdScanner11descriptionB5cxx11Ev
FNDA:75,_ZNK8sys_scan13AuditdScanner4nameB5cxx11Ev
FNDA:0,_ZNK8sys_scan13AuditdScanner11descriptionB5cxx11Ev
FNF:2
FNH:1
DA:11,225
DA:12,0
LF:2
LH:1
end_of_record
TN:
SF:/home/joseph-mazzini/sys-scan-graph/src/scanners/ContainerScanner.cpp
FN:18,46,_ZN8sys_scan16ContainerScanner19derive_container_idERKNSt7__cxx1112basic_stringIcSt11char_traitsIcESaIcEEE
FN:23,27,_ZZN8sys_scan16ContainerScanner19derive_container_idERKNSt7__cxx1112basic_stringIcSt11char_traitsIcESaIcEEEENKUlhE_clEh
FN:48,117,_ZN8sys_scan16ContainerScanner4scanERNS_11ScanContextE
FNDA:0,_ZN8sys_scan16ContainerScanner19derive_container_idERKNSt7__cxx1112basic_stringIcSt11char_traitsIcESaIcEEE
FNDA:0,_ZZN8sys_scan16ContainerScanner19derive_container_idERKNSt7__cxx1112basic_stringIcSt11char_traitsIcESaIcEEEENKUlhE_clEh
FNDA:14,_ZN8sys_scan16ContainerScanner4scanERNS_11ScanContextE
FNF:3
FNH:1
DA:18,0
DA:20,0
DA:21,0
DA:22,0
DA:23,0
DA:24,0
DA:25,0
DA:26,0
DA:28,0
DA:30,0
DA:31,0
DA:33,0
DA:34,0
DA:35,0
DA:37,0
DA:38,0
DA:40,0
DA:41,0
DA:45,0
DA:48,14
DA:49,14
DA:50,14
DA:53,0
DA:55,0
DA:56,0
DA:57,0
DA:58,0
DA:60,0
DA:61,0
DA:63,0
DA:64,0
DA:65,0
DA:66,0
DA:68,0
DA:69,0
DA:70,0
DA:71,0
DA:73,0
DA:74,0
DA:75,0
DA:76,0
DA:77,0
DA:78,0
DA:79,0
DA:80,0
DA:81,0
DA:82,0
DA:83,0
DA:84,0
DA:85,0
DA:87,0
DA:89,0
DA:90,0
DA:91,0
DA:92,0
DA:93,0
DA:94,0
DA:96,0
DA:98,0
DA:99,0
DA:100,0
DA:101,0
DA:102,0
DA:103,0
DA:104,0
DA:105,0
DA:106,0
DA:107,0
DA:108,0
DA:109,0
DA:110,0
DA:111,0
DA:112,0
DA:113,0
DA:114,0
DA:115,0
DA:116,0
DA:117,0
LF:78
LH:3
end_of_record
TN:
SF:/home/joseph-mazzini/sys-scan-graph/src/scanners/ContainerScanner.h
FN:19,19,_ZNK8sys_scan16ContainerScanner4nameB5cxx11Ev
FN:20,20,_ZNK8sys_scan16ContainerScanner11descriptionB5cxx11Ev
FNDA:75,_ZNK8sys_scan16ContainerScanner4nameB5cxx11Ev
FNDA:0,_ZNK8sys_scan16ContainerScanner11descriptionB5cxx11Ev
FNF:2
FNH:1
DA:19,225
DA:20,0
LF:2
LH:1
end_of_record
TN:
SF:/home/joseph-mazzini/sys-scan-graph/src/scanners/EbpfScanner.cpp
FN:209,272,_ZN8sys_scan11EbpfScanner20scan_proc_filesystemERNS_11ScanContextEi
FN:274,304,_ZN8sys_scan11EbpfScanner16get_running_pidsEv
FN:30,30,_ZNK8sys_scan11EbpfScanner4nameB5cxx11Ev
FN:306,352,_ZN8sys_scan11EbpfScanner16get_process_infoEi
FN:31,31,_ZNK8sys_scan11EbpfScanner11descriptionB5cxx11Ev
FN:355,417,_ZNK8sys_scan11EbpfScanner17is_ebpf_availableEv
FN:418,545,_ZN8sys_scan11EbpfScanner4scanERNS_11ScanContextE
FN:547,550,_ZN8sys_scan17make_ebpf_scannerEv
FNDA:14,_ZN8sys_scan11EbpfScanner20scan_proc_filesystemERNS_11ScanContextEi
FNDA:434,_ZN8sys_scan11EbpfScanner16get_running_pidsEv
FNDA:137,_ZNK8sys_scan11EbpfScanner4nameB5cxx11Ev
FNDA:34,_ZN8sys_scan11EbpfScanner16get_process_infoEi
FNDA:0,_ZNK8sys_scan11EbpfScanner11descriptionB5cxx11Ev
FNDA:14,_ZNK8sys_scan11EbpfScanner17is_ebpf_availableEv
FNDA:14,_ZN8sys_scan11EbpfScanner4scanERNS_11ScanContextE
FNDA:0,_ZN8sys_scan17make_ebpf_scannerEv
FNF:8
FNH:6
DA:30,411
DA:31,0
DA:209,14
DA:212,28
DA:214,14
DA:215,14
DA:218,14
DA:219,14
DA:220,14
DA:223,434
DA:224,420
DA:226,420
DA:227,420
DA:230,137724
DA:231,137304
DA:233,34
DA:234,34
DA:235,34
DA:236,34
DA:237,68
DA:238,102
DA:239,34
DA:240,102
DA:241,68
DA:242,102
DA:243,68
DA:244,34
DA:245,34
DA:247,34
DA:248,68
DA:253,137751
DA:254,137331
DA:255,27
DA:257,137304
DA:260,420
DA:263,14
DA:264,14
DA:265,14
DA:266,14
DA:267,14
DA:268,42
DA:269,28
DA:270,14
DA:271,14
DA:272,14
DA:274,434
DA:276,434
DA:278,170088
DA:279,169654
DA:280,148388
DA:282,148388
DA:283,697158
DA:284,555280
DA:285,6510
DA:286,6510
DA:289,148388
DA:291,141878
DA:292,141878
DA:293,0
DA:295,0
DA:297,148388
DA:298,434
DA:299,0
DA:300,0
DA:301,0
DA:302,0
DA:303,434
DA:304,434
DA:306,34
DA:308,34
DA:309,34
DA:313,34
DA:314,34
DA:315,0
DA:318,34
DA:319,34
DA:320,34
DA:321,34
DA:322,34
DA:324,170
DA:325,136
DA:326,34
DA:327,34
DA:328,34
DA:329,34
DA:331,34
DA:332,34
DA:334,136
DA:336,34
DA:339,68
DA:340,34
DA:341,34
DA:342,34
DA:343,26
DA:345,34
DA:347,34
DA:348,0
DA:349,0
DA:351,34
DA:352,34
DA:355,14
DA:359,14
DA:418,14
DA:420,14
DA:421,14
DA:424,14
DA:426,14
DA:428,28
DA:431,14
DA:432,14
DA:433,14
DA:434,14
DA:435,14
DA:436,28
DA:437,28
DA:438,14
DA:439,14
DA:442,14
DA:443,14
DA:444,14
DA:547,0
DA:549,0
LF:122
LH:110
end_of_record
TN:
SF:/home/joseph-mazzini/sys-scan-graph/src/scanners/EbpfScanner.h
FNF:0
FNH:0
LF:0
LH:0
end_of_record
TN:
SF:/home/joseph-mazzini/sys-scan-graph/src/scanners/IOCScanner.cpp
FN:105,245,_ZN8sys_scan10IOCScanner4scanERNS_11ScanContextE
FN:19,26,_ZN8sys_scanL12is_valid_pidEPKcPi
FN:29,40,_ZN8sys_scanL19read_file_to_bufferEPKcPcm
FN:49,64,_ZN8sys_scan12ProcessFiles8read_allEi
FN:74,78,_ZN8sys_scan11ProcessInfo11set_exe_keyEPKcm
FN:80,84,_ZN8sys_scan11ProcessInfo14set_cmd_sampleEPKcm
FN:88,103,_ZN8sys_scanL14list_proc_pidsEPim
FNDA:14,_ZN8sys_scan10IOCScanner4scanERNS_11ScanContextE
FNDA:5470,_ZN8sys_scanL12is_valid_pidEPKcPi
FNDA:9148,_ZN8sys_scanL19read_file_to_bufferEPKcPcm
FNDA:4574,_ZN8sys_scan12ProcessFiles8read_allEi
FNDA:70,_ZN8sys_scan11ProcessInfo11set_exe_keyEPKcm
FNDA:70,_ZN8sys_scan11ProcessInfo14set_cmd_sampleEPKcm
FNDA:14,_ZN8sys_scanL14list_proc_pidsEPim
FNF:7
FNH:7
DA:19,5470
DA:20,5470
DA:22,5470
DA:23,5470
DA:24,4574
DA:25,4574
DA:29,9148
DA:30,9148
DA:31,9148
DA:32,6218
DA:33,10290
DA:34,9696
DA:35,9696
DA:36,4072
DA:38,6218
DA:39,6218
DA:49,4574
DA:51,4574
DA:52,4574
DA:53,4574
DA:55,4574
DA:56,4574
DA:57,4574
DA:59,4574
DA:60,4574
DA:61,4574
DA:63,4574
DA:74,70
DA:75,70
DA:76,70
DA:77,70
DA:78,70
DA:80,70
DA:81,70
DA:82,70
DA:83,70
DA:84,70
DA:88,14
DA:89,14
DA:90,14
DA:92,14
DA:94,5512
DA:95,5498
DA:97,5470
DA:98,4574
DA:101,14
DA:102,14
DA:105,14
DA:113,14
DA:114,14
DA:115,14
DA:118,14
DA:119,14
DA:123,14
DA:126,14
DA:129,4588
DA:130,4574
DA:133,4574
DA:136,2428
DA:137,2428
DA:138,2428
DA:139,2428
DA:140,2428
DA:143,2428
DA:145,19424
DA:146,16996
DA:147,0
DA:148,0
DA:152,12070
DA:153,9712
DA:154,70
DA:155,70
DA:161,2428
DA:162,1644
DA:163,1644
DA:164,8150
DA:165,6576
DA:166,70
DA:167,70
DA:174,2428
DA:175,4932
DA:176,3288
DA:177,0
DA:178,0
DA:184,2428
DA:185,70
DA:186,70
DA:189,70
DA:190,70
DA:191,70
DA:192,70
DA:193,70
DA:196,70
DA:197,70
DA:198,0
DA:199,0
DA:200,0
DA:201,0
DA:205,70
DA:206,70
DA:212,84
DA:213,70
DA:215,70
DA:216,210
DA:217,70
DA:220,70
DA:221,0
DA:222,0
DA:223,70
DA:224,70
DA:225,140
DA:226,0
DA:227,0
DA:228,0
DA:230,0
DA:231,0
DA:235,210
DA:236,210
DA:238,210
DA:239,70
DA:240,210
DA:241,70
DA:243,70
DA:244,70
DA:245,14
LF:125
LH:110
end_of_record
TN:
SF:/home/joseph-mazzini/sys-scan-graph/src/scanners/IOCScanner.h
FN:13,13,_ZNK8sys_scan10IOCScanner4nameB5cxx11Ev
FN:14,14,_ZNK8sys_scan10IOCScanner11descriptionB5cxx11Ev
FNDA:145,_ZNK8sys_scan10IOCScanner4nameB5cxx11Ev
FNDA:0,_ZNK8sys_scan10IOCScanner11descriptionB5cxx11Ev
FNF:2
FNH:1
DA:13,435
DA:14,0
LF:2
LH:1
end_of_record
TN:
SF:/home/joseph-mazzini/sys-scan-graph/src/scanners/IntegrityScanner.cpp
FN:27,84,_ZN8sys_scanL15run_cmd_captureERKSt6vectorINSt7__cxx1112basic_stringIcSt11char_traitsIcESaIcEEESaIS6_EE
FN:86,148,_ZN8sys_scan16IntegrityScanner4scanERNS_11ScanContextE
FNDA:0,_ZN8sys_scanL15run_cmd_captureERKSt6vectorINSt7__cxx1112basic_stringIcSt11char_traitsIcESaIcEEESaIS6_EE
FNDA:0,_ZN8sys_scan16IntegrityScanner4scanERNS_11ScanContextE
FNF:2
FNH:0
DA:27,0
DA:28,0
DA:31,0
DA:33,0
DA:34,0
DA:35,0
DA:36,0
DA:37,0
DA:40,0
DA:41,0
DA:42,0
DA:43,0
DA:44,0
DA:47,0
DA:48,0
DA:49,0
DA:51,0
DA:54,0
DA:55,0
DA:57,0
DA:58,0
DA:59,0
DA:60,0
DA:62,0
DA:67,0
DA:68,0
DA:69,0
DA:71,0
DA:72,0
DA:76,0
DA:80,0
DA:82,0
DA:83,0
DA:86,0
DA:87,0
DA:88,0
DA:90,0
DA:91,0
DA:92,0
DA:93,0
DA:95,0
DA:96,0
DA:97,0
DA:98,0
DA:99,0
DA:101,0
DA:102,0
DA:104,0
DA:105,0
DA:106,0
DA:107,0
DA:109,0
DA:110,0
DA:111,0
DA:112,0
DA:113,0
DA:114,0
DA:115,0
DA:116,0
DA:117,0
DA:120,0
DA:121,0
DA:122,0
DA:124,0
DA:125,0
DA:141,0
DA:142,0
DA:143,0
DA:144,0
DA:145,0
DA:146,0
DA:147,0
DA:148,0
LF:73
LH:0
end_of_record
TN:
SF:/home/joseph-mazzini/sys-scan-graph/src/scanners/IntegrityScanner.h
FN:11,11,_ZNK8sys_scan16IntegrityScanner4nameB5cxx11Ev
FN:12,12,_ZNK8sys_scan16IntegrityScanner11descriptionB5cxx11Ev
FNDA:0,_ZNK8sys_scan16IntegrityScanner4nameB5cxx11Ev
FNDA:0,_ZNK8sys_scan16IntegrityScanner11descriptionB5cxx11Ev
FNF:2
FNH:0
DA:11,0
DA:12,0
LF:2
LH:0
end_of_record
TN:
SF:/home/joseph-mazzini/sys-scan-graph/src/scanners/KernelHardeningScanner.cpp
FN:13,13,_ZN8sys_scanL15read_first_lineEPKc
FN:14,14,_ZN8sys_scanL11file_existsEPKc
FN:15,15,_ZN8sys_scanL8read_allEPKc
FN:17,81,_ZN8sys_scan22KernelHardeningScanner4scanERNS_11ScanContextE
FN:63,63,_ZZN8sys_scan22KernelHardeningScanner4scanERNS_11ScanContextEENKUlRKNSt7__cxx1112basic_stringIcSt11char_traitsIcESaIcEEEE_clESA_
FNDA:0,_ZN8sys_scanL15read_first_lineEPKc
FNDA:0,_ZN8sys_scanL11file_existsEPKc
FNDA:0,_ZN8sys_scanL8read_allEPKc
FNDA:14,_ZN8sys_scan22KernelHardeningScanner4scanERNS_11ScanContextE
FNDA:0,_ZZN8sys_scan22KernelHardeningScanner4scanERNS_11ScanContextEENKUlRKNSt7__cxx1112basic_stringIcSt11char_traitsIcESaIcEEEE_clESA_
FNF:5
FNH:1
DA:13,0
DA:14,0
DA:15,0
DA:17,14
DA:18,14
DA:22,0
DA:23,0
DA:25,0
DA:26,0
DA:27,0
DA:28,0
DA:29,0
DA:30,0
DA:31,0
DA:32,0
DA:33,0
DA:34,0
DA:35,0
DA:36,0
DA:39,0
DA:41,0
DA:42,0
DA:43,0
DA:44,0
DA:48,0
DA:49,0
DA:50,0
DA:51,0
DA:52,0
DA:53,0
DA:56,0
DA:57,0
DA:58,0
DA:59,0
DA:60,0
DA:63,0
DA:74,0
DA:75,0
DA:76,0
DA:78,0
DA:79,0
DA:80,0
DA:81,0
LF:43
LH:2
end_of_record
TN:
SF:/home/joseph-mazzini/sys-scan-graph/src/scanners/KernelHardeningScanner.h
FN:11,11,_ZNK8sys_scan22KernelHardeningScanner4nameB5cxx11Ev
FN:12,12,_ZNK8sys_scan22KernelHardeningScanner11descriptionB5cxx11Ev
FNDA:75,_ZNK8sys_scan22KernelHardeningScanner4nameB5cxx11Ev
FNDA:0,_ZNK8sys_scan22KernelHardeningScanner11descriptionB5cxx11Ev
FNF:2
FNH:1
DA:11,225
DA:12,0
LF:2
LH:1
end_of_record
TN:
SF:/home/joseph-mazzini/sys-scan-graph/src/scanners/KernelParamScanner.cpp
FN:33,56,_ZN8sys_scanL17read_kernel_paramEPKcRNSt7__cxx1112basic_stringIcSt11char_traitsIcESaIcEEE
FN:58,99,_ZN8sys_scan18KernelParamScanner4scanERNS_11ScanContextE
FNDA:56,_ZN8sys_scanL17read_kernel_paramEPKcRNSt7__cxx1112basic_stringIcSt11char_traitsIcESaIcEEE
FNDA:14,_ZN8sys_scan18KernelParamScanner4scanERNS_11ScanContextE
FNF:2
FNH:2
DA:33,56
DA:34,56
DA:35,56
DA:36,0
DA:40,56
DA:41,56
DA:43,56
DA:44,0
DA:48,56
DA:49,56
DA:50,112
DA:51,56
DA:54,56
DA:55,56
DA:58,14
DA:60,14
DA:61,14
DA:64,70
DA:65,56
DA:66,56
DA:68,56
DA:70,0
DA:71,0
DA:75,56
DA:76,56
DA:77,56
DA:78,56
DA:81,56
DA:82,28
DA:84,28
DA:85,56
DA:89,112
DA:90,112
DA:92,56
DA:93,56
DA:96,70
DA:97,56
DA:99,14
LF:38
LH:34
end_of_record
TN:
SF:/home/joseph-mazzini/sys-scan-graph/src/scanners/KernelParamScanner.h
FN:10,10,_ZNK8sys_scan18KernelParamScanner4nameB5cxx11Ev
FN:11,11,_ZNK8sys_scan18KernelParamScanner11descriptionB5cxx11Ev
FNDA:131,_ZNK8sys_scan18KernelParamScanner4nameB5cxx11Ev
FNDA:0,_ZNK8sys_scan18KernelParamScanner11descriptionB5cxx11Ev
FNF:2
FNH:1
DA:10,393
DA:11,0
LF:2
LH:1
end_of_record
TN:
SF:/home/joseph-mazzini/sys-scan-graph/src/scanners/MACScanner.cpp
FN:135,274,_ZN8sys_scan10MACScanner4scanERNS_11ScanContextE
FN:20,23,_ZN8sys_scanL16file_exists_leanEPKc
FN:26,37,_ZN8sys_scanL24read_file_to_buffer_leanEPKcPcm
FN:40,53,_ZN8sys_scanL16trim_string_leanEPc
FN:56,133,_ZN8sys_scanL23scan_processes_mac_leanEPmS0_S0_
FNDA:14,_ZN8sys_scan10MACScanner4scanERNS_11ScanContextE
FNDA:70,_ZN8sys_scanL16file_exists_leanEPKc
FNDA:9162,_ZN8sys_scanL24read_file_to_buffer_leanEPKcPcm
FNDA:9162,_ZN8sys_scanL16trim_string_leanEPc
FNDA:14,_ZN8sys_scanL23scan_processes_mac_leanEPmS0_S0_
FNF:5
FNH:5
DA:20,70
DA:22,70
DA:26,9162
DA:27,9162
DA:28,9162
DA:29,9162
DA:30,18324
DA:31,18324
DA:32,18324
DA:33,9162
DA:35,9162
DA:36,9162
DA:40,9162
DA:41,9162
DA:43,9162
DA:44,9162
DA:46,9162
DA:47,18324
DA:48,9162
DA:50,9162
DA:51,0
DA:56,14
DA:58,14
DA:59,14
DA:64,5512
DA:65,6394
DA:68,5470
DA:69,23156
DA:70,18582
DA:71,896
DA:72,896
DA:75,5470
DA:82,4574
DA:83,4574
DA:84,4574
DA:87,4574
DA:88,4574
DA:89,4574
DA:90,4574
DA:91,4574
DA:94,4574
DA:95,4574
DA:96,4574
DA:97,4574
DA:98,4574
DA:101,4574
DA:102,0
DA:106,4574
DA:109,4224
DA:110,4224
DA:111,1378
DA:114,1378
DA:118,1378
DA:120,8156
DA:121,6806
DA:122,28
DA:123,28
DA:129,4574
DA:132,14
DA:135,14
DA:137,14
DA:140,14
DA:141,14
DA:142,14
DA:145,14
DA:146,0
DA:149,0
DA:150,0
DA:151,0
DA:152,0
DA:153,0
DA:154,0
DA:159,14
DA:160,14
DA:161,0
DA:162,0
DA:163,0
DA:164,0
DA:166,0
DA:167,0
DA:170,0
DA:171,0
DA:172,0
DA:173,0
DA:174,0
DA:175,0
DA:176,0
DA:177,0
DA:178,0
DA:179,0
DA:187,14
DA:188,14
DA:190,14
DA:191,14
DA:193,14
DA:194,14
DA:195,14
DA:196,14
DA:201,14
DA:202,14
DA:203,14
DA:205,14
DA:209,14
DA:210,14
DA:211,14
DA:212,14
DA:213,14
DA:215,14
DA:216,14
DA:218,14
DA:219,14
DA:221,0
DA:224,0
DA:225,0
DA:226,0
DA:227,0
DA:228,0
DA:229,0
DA:231,14
DA:232,14
DA:236,14
DA:237,14
DA:238,14
DA:239,14
DA:240,14
DA:242,14
DA:243,0
DA:244,0
DA:246,28
DA:247,14
DA:248,42
DA:249,42
DA:250,14
DA:251,42
DA:252,14
DA:255,14
DA:256,14
DA:259,14
DA:260,0
DA:261,0
DA:262,0
DA:263,0
DA:264,0
DA:265,0
DA:266,14
DA:267,0
DA:268,0
DA:269,0
DA:270,0
DA:271,0
DA:272,0
DA:273,0
DA:274,14
LF:153
LH:106
end_of_record
TN:
SF:/home/joseph-mazzini/sys-scan-graph/src/scanners/MACScanner.h
FN:11,11,_ZNK8sys_scan10MACScanner4nameB5cxx11Ev
FN:12,12,_ZNK8sys_scan10MACScanner11descriptionB5cxx11Ev
FNDA:103,_ZNK8sys_scan10MACScanner4nameB5cxx11Ev
FNDA:0,_ZNK8sys_scan10MACScanner11descriptionB5cxx11Ev
FNF:2
FNH:1
DA:11,309
DA:12,0
LF:2
LH:1
end_of_record
TN:
SF:/home/joseph-mazzini/sys-scan-graph/src/scanners/ModuleHelpers.cpp
FN:101,106,_ZN8sys_scan19ElfModuleHeuristics22has_large_text_sectionERKSt6vectorINS0_11SectionInfoESaIS2_EE
FN:108,121,_ZN8sys_scan19ElfModuleHeuristics27has_suspicious_section_nameERKSt6vectorINS0_11SectionInfoESaIS2_EE
FN:109,116,_ZZN8sys_scan19ElfModuleHeuristics27has_suspicious_section_nameERKSt6vectorINS0_11SectionInfoESaIS2_EEENKUlRKNSt7__cxx1112basic_stringIcSt11char_traitsIcESaIcEEEE_clESE_
FN:123,145,_ZN8sys_scan17SignatureAnalyzer18is_unsigned_moduleERKNSt7__cxx1112basic_stringIcSt11char_traitsIcESaIcEEE
FN:124,132,_ZZN8sys_scan17SignatureAnalyzer18is_unsigned_moduleERKNSt7__cxx1112basic_stringIcSt11char_traitsIcESaIcEEEENKUlS8_mE_clES8_m
FN:133,139,_ZZN8sys_scan17SignatureAnalyzer18is_unsigned_moduleERKNSt7__cxx1112basic_stringIcSt11char_traitsIcESaIcEEEENKUlS8_E_clES8_
FN:14,16,_ZN8sys_scan16CompressionUtils21decompress_xz_boundedERKNSt7__cxx1112basic_stringIcSt11char_traitsIcESaIcEEE
FN:147,184,_ZN8sys_scan17SignatureAnalyzer14compute_sha256ERKNSt7__cxx1112basic_stringIcSt11char_traitsIcESaIcEEE
FN:18,20,_ZN8sys_scan16CompressionUtils21decompress_gz_boundedERKNSt7__cxx1112basic_stringIcSt11char_traitsIcESaIcEEE
FN:22,24,_ZN8sys_scan16CompressionUtils13is_compressedERKNSt7__cxx1112basic_stringIcSt11char_traitsIcESaIcEEE
FN:26,91,_ZN8sys_scan19ElfModuleHeuristics14parse_sectionsERKNSt7__cxx1112basic_stringIcSt11char_traitsIcESaIcEEE
FN:37,37,_ZZN8sys_scan19ElfModuleHeuristics14parse_sectionsERKNSt7__cxx1112basic_stringIcSt11char_traitsIcESaIcEEEENKUlPKhE_clESA_
FN:38,38,_ZZN8sys_scan19ElfModuleHeuristics14parse_sectionsERKNSt7__cxx1112basic_stringIcSt11char_traitsIcESaIcEEEENKUlPKhE0_clESA_
FN:39,44,_ZZN8sys_scan19ElfModuleHeuristics14parse_sectionsERKNSt7__cxx1112basic_stringIcSt11char_traitsIcESaIcEEEENKUlPKhE1_clESA_
FN:93,99,_ZN8sys_scan19ElfModuleHeuristics14has_wx_sectionERKSt6vectorINS0_11SectionInfoESaIS2_EE
FNDA:0,_ZN8sys_scan19ElfModuleHeuristics22has_large_text_sectionERKSt6vectorINS0_11SectionInfoESaIS2_EE
FNDA:0,_ZN8sys_scan19ElfModuleHeuristics27has_suspicious_section_nameERKSt6vectorINS0_11SectionInfoESaIS2_EE
FNDA:0,_ZZN8sys_scan19ElfModuleHeuristics27has_suspicious_section_nameERKSt6vectorINS0_11SectionInfoESaIS2_EEENKUlRKNSt7__cxx1112basic_stringIcSt11char_traitsIcESaIcEEEE_clESE_
FNDA:0,_ZN8sys_scan17SignatureAnalyzer18is_unsigned_moduleERKNSt7__cxx1112basic_stringIcSt11char_traitsIcESaIcEEE
FNDA:0,_ZZN8sys_scan17SignatureAnalyzer18is_unsigned_moduleERKNSt7__cxx1112basic_stringIcSt11char_traitsIcESaIcEEEENKUlS8_mE_clES8_m
FNDA:0,_ZZN8sys_scan17SignatureAnalyzer18is_unsigned_moduleERKNSt7__cxx1112basic_stringIcSt11char_traitsIcESaIcEEEENKUlS8_E_clES8_
FNDA:0,_ZN8sys_scan16CompressionUtils21decompress_xz_boundedERKNSt7__cxx1112basic_stringIcSt11char_traitsIcESaIcEEE
FNDA:0,_ZN8sys_scan17SignatureAnalyzer14compute_sha256ERKNSt7__cxx1112basic_stringIcSt11char_traitsIcESaIcEEE
FNDA:0,_ZN8sys_scan16CompressionUtils21decompress_gz_boundedERKNSt7__cxx1112basic_stringIcSt11char_traitsIcESaIcEEE
FNDA:0,_ZN8sys_scan16CompressionUtils13is_compressedERKNSt7__cxx1112basic_stringIcSt11char_traitsIcESaIcEEE
FNDA:0,_ZN8sys_scan19ElfModuleHeuristics14parse_sectionsERKNSt7__cxx1112basic_stringIcSt11char_traitsIcESaIcEEE
FNDA:0,_ZZN8sys_scan19ElfModuleHeuristics14parse_sectionsERKNSt7__cxx1112basic_stringIcSt11char_traitsIcESaIcEEEENKUlPKhE_clESA_
FNDA:0,_ZZN8sys_scan19ElfModuleHeuristics14parse_sectionsERKNSt7__cxx1112basic_stringIcSt11char_traitsIcESaIcEEEENKUlPKhE0_clESA_
FNDA:0,_ZZN8sys_scan19ElfModuleHeuristics14parse_sectionsERKNSt7__cxx1112basic_stringIcSt11char_traitsIcESaIcEEEENKUlPKhE1_clESA_
FNDA:0,_ZN8sys_scan19ElfModuleHeuristics14has_wx_sectionERKSt6vectorINS0_11SectionInfoESaIS2_EE
FNF:15
FNH:0
DA:14,0
DA:15,0
DA:18,0
DA:19,0
DA:22,0
DA:23,0
DA:26,0
DA:27,0
DA:28,0
DA:29,0
DA:32,0
DA:33,0
DA:35,0
DA:36,0
DA:37,0
DA:38,0
DA:39,0
DA:40,0
DA:41,0
DA:42,0
DA:43,0
DA:44,0
DA:46,0
DA:47,0
DA:48,0
DA:49,0
DA:51,0
DA:53,0
DA:54,0
DA:55,0
DA:56,0
DA:57,0
DA:58,0
DA:59,0
DA:60,0
DA:62,0
DA:63,0
DA:65,0
DA:68,0
DA:69,0
DA:70,0
DA:71,0
DA:72,0
DA:73,0
DA:74,0
DA:75,0
DA:76,0
DA:77,0
DA:78,0
DA:79,0
DA:80,0
DA:81,0
DA:82,0
DA:83,0
DA:86,0
DA:88,0
DA:90,0
DA:91,0
DA:93,0
DA:95,0
DA:96,0
DA:98,0
DA:101,0
DA:102,0
DA:103,0
DA:105,0
DA:108,0
DA:109,0
DA:110,0
DA:112,0
DA:113,0
DA:114,0
DA:115,0
DA:117,0
DA:118,0
DA:120,0
DA:123,0
DA:124,0
DA:125,0
DA:126,0
DA:127,0
DA:128,0
DA:129,0
DA:130,0
DA:131,0
DA:132,0
DA:133,0
DA:134,0
DA:135,0
DA:136,0
DA:137,0
DA:138,0
DA:139,0
DA:141,0
DA:142,0
DA:143,0
DA:144,0
DA:145,0
DA:147,0
DA:182,0
LF:100
LH:0
end_of_record
TN:
SF:/home/joseph-mazzini/sys-scan-graph/src/scanners/ModuleHelpers.h
FNF:0
FNH:0
LF:0
LH:0
end_of_record
TN:
SF:/home/joseph-mazzini/sys-scan-graph/src/scanners/ModuleScanner.cpp
FN:126,142,_ZN8sys_scan14ModuleScanDataC2Ev
FN:145,610,_ZN8sys_scan13ModuleScanner4scanERNS_11ScanContextE
FN:244,251,_ZZN8sys_scan13ModuleScanner4scanERNS_11ScanContextEENKUlRKNSt7__cxx1112basic_stringIcSt11char_traitsIcESaIcEEEE_clESA_
FN:45,59,_ZN8sys_scanL15read_file_posixEPKcRNSt7__cxx1112basic_stringIcSt11char_traitsIcESaIcEEE
FN:458,465,_ZZN8sys_scan13ModuleScanner4scanERNS_11ScanContextEENKUlvE_clEv
FN:62,83,_ZN8sys_scanL16read_lines_posixEPKcRSt6vectorINSt7__cxx1112basic_stringIcSt11char_traitsIcESaIcEEESaIS8_EE
FN:86,92,_ZN8sys_scanL17parse_module_lineERKNSt7__cxx1112basic_stringIcSt11char_traitsIcESaIcEEERS5_
FN:95,105,_ZN8sys_scanL15strip_extensionENSt7__cxx1112basic_stringIcSt11char_traitsIcESaIcEEE
FNDA:14,_ZN8sys_scan14ModuleScanDataC2Ev
FNDA:14,_ZN8sys_scan13ModuleScanner4scanERNS_11ScanContextE
FNDA:0,_ZZN8sys_scan13ModuleScanner4scanERNS_11ScanContextEENKUlRKNSt7__cxx1112basic_stringIcSt11char_traitsIcESaIcEEEE_clESA_
FNDA:16,_ZN8sys_scanL15read_file_posixEPKcRNSt7__cxx1112basic_stringIcSt11char_traitsIcESaIcEEE
FNDA:0,_ZZN8sys_scan13ModuleScanner4scanERNS_11ScanContextEENKUlvE_clEv
FNDA:16,_ZN8sys_scanL16read_lines_posixEPKcRSt6vectorINSt7__cxx1112basic_stringIcSt11char_traitsIcESaIcEEESaIS8_EE
FNDA:3150,_ZN8sys_scanL17parse_module_lineERKNSt7__cxx1112basic_stringIcSt11char_traitsIcESaIcEEERS5_
FNDA:6880,_ZN8sys_scanL15strip_extensionENSt7__cxx1112basic_stringIcSt11char_traitsIcESaIcEEE
FNF:8
FNH:6
DA:45,16
DA:46,16
DA:47,16
DA:49,16
DA:50,16
DA:53,182
DA:54,166
DA:57,16
DA:58,16
DA:62,16
DA:63,16
DA:64,16
DA:66,16
DA:67,16
DA:69,16
DA:70,16
DA:71,9836
DA:72,9820
DA:73,9820
DA:75,9820
DA:76,9820
DA:78,16
DA:79,0
DA:82,16
DA:83,16
DA:86,3150
DA:87,3150
DA:88,3150
DA:90,3150
DA:91,3150
DA:95,6880
DA:97,26641
DA:98,20054
DA:99,20054
DA:100,293
DA:101,293
DA:104,6880
DA:126,14
DA:127,14
DA:128,14
DA:129,14
DA:130,14
DA:132,14
DA:133,14
DA:134,14
DA:135,14
DA:136,14
DA:137,14
DA:138,14
DA:139,14
DA:140,14
DA:141,14
DA:142,14
DA:145,14
DA:146,14
DA:147,14
DA:150,14
DA:151,14
DA:152,14
DA:155,14
DA:156,14
DA:157,14
DA:159,14
DA:161,13
DA:162,13
DA:163,2743
DA:164,2730
DA:165,2730
DA:166,2730
DA:167,2730
DA:168,2730
DA:169,2730
DA:170,2730
DA:171,2730
DA:172,2730
DA:173,2730
DA:175,13
DA:176,13
DA:182,1
DA:183,1
DA:184,6588
DA:185,6587
DA:186,6587
DA:187,6587
DA:189,6587
DA:190,6587
DA:191,6587
DA:192,6587
DA:194,6587
DA:195,6587
DA:197,1
DA:201,1
DA:202,1
DA:203,294
DA:204,293
DA:205,293
DA:206,293
DA:207,293
DA:208,293
DA:209,293
DA:211,1
DA:215,1
DA:216,1
DA:218,327
DA:219,326
DA:220,646
DA:223,1
DA:228,1
DA:229,1
DA:231,1
DA:232,1
DA:233,1
DA:234,1
DA:235,1
DA:236,1
DA:237,1
DA:238,1
DA:239,1
DA:240,1
DA:241,1
DA:244,0
DA:245,0
DA:246,0
DA:247,0
DA:248,0
DA:249,0
DA:250,0
DA:253,211
DA:254,210
DA:255,210
DA:257,210
DA:258,210
DA:259,10
DA:262,210
DA:263,210
DA:264,210
DA:265,210
DA:266,0
DA:267,0
DA:268,0
DA:269,0
DA:274,210
DA:275,210
DA:276,210
DA:277,210
DA:278,0
DA:280,0
DA:282,0
DA:283,0
DA:284,0
DA:285,0
DA:286,0
DA:287,0
DA:289,0
DA:292,0
DA:293,0
DA:295,0
DA:296,0
DA:297,0
DA:298,0
DA:299,0
DA:300,0
DA:304,0
DA:308,0
DA:309,0
DA:310,0
DA:311,0
DA:312,0
DA:317,210
DA:318,0
DA:319,0
DA:320,0
DA:325,210
DA:326,0
DA:327,210
DA:328,0
DA:329,0
DA:330,0
DA:334,210
DA:335,210
DA:336,0
DA:337,0
DA:338,0
DA:339,0
DA:340,0
DA:342,0
DA:343,0
DA:344,0
DA:345,0
DA:347,0
DA:348,0
DA:349,0
DA:350,0
DA:352,0
DA:353,0
DA:354,0
DA:355,0
DA:357,0
DA:358,0
DA:359,0
DA:360,0
DA:364,0
DA:365,0
DA:366,0
DA:367,0
DA:368,0
DA:369,0
DA:370,0
DA:371,0
DA:372,0
DA:375,0
DA:376,0
DA:377,0
DA:378,0
DA:379,0
DA:380,0
DA:383,0
DA:384,0
DA:385,0
DA:386,0
DA:387,0
DA:390,0
DA:391,0
DA:392,0
DA:393,0
DA:394,0
DA:395,0
DA:396,0
DA:397,0
DA:399,0
DA:404,0
DA:415,0
DA:416,0
DA:417,0
DA:419,210
DA:422,211
DA:423,210
DA:424,210
DA:425,210
DA:427,210
DA:430,1
DA:431,324
DA:432,600
DA:433,600
DA:434,67
DA:435,67
DA:436,5
DA:441,1
DA:444,0
DA:445,0
DA:446,0
DA:447,0
DA:450,0
DA:451,0
DA:452,0
DA:453,0
DA:454,0
DA:457,0
DA:458,0
DA:459,0
DA:460,0
DA:461,0
DA:462,0
DA:464,0
DA:465,0
DA:467,0
DA:468,0
DA:469,0
DA:470,0
DA:471,0
DA:472,0
DA:474,0
DA:475,0
DA:477,0
DA:478,0
DA:479,0
DA:481,0
DA:482,0
DA:484,0
DA:485,0
DA:488,0
DA:489,0
DA:490,0
DA:491,0
DA:492,0
DA:494,0
DA:495,0
DA:497,0
DA:498,0
DA:499,0
DA:500,0
DA:501,0
DA:503,0
DA:504,0
DA:506,0
DA:507,0
DA:508,0
DA:509,0
DA:510,0
DA:511,0
DA:512,0
DA:514,0
DA:515,0
DA:518,0
DA:519,0
DA:520,0
DA:521,0
DA:522,0
DA:523,0
DA:524,0
DA:526,0
DA:527,0
DA:530,0
DA:531,0
DA:532,0
DA:533,0
DA:534,0
DA:535,0
DA:536,0
DA:538,0
DA:539,0
DA:544,0
DA:545,0
DA:547,0
DA:548,0
DA:550,0
DA:551,0
DA:553,0
DA:554,0
DA:564,0
DA:565,0
DA:566,0
DA:567,0
DA:568,0
DA:571,0
DA:572,0
DA:575,0
DA:579,0
DA:580,0
DA:581,0
DA:582,0
DA:583,0
DA:584,0
DA:587,0
DA:588,0
DA:589,0
DA:590,0
DA:591,0
DA:592,0
DA:593,0
DA:596,0
DA:597,0
DA:600,0
DA:601,0
DA:602,0
DA:603,0
DA:605,0
DA:607,0
DA:609,0
DA:610,71
LF:360
LH:153
end_of_record
TN:
SF:/home/joseph-mazzini/sys-scan-graph/src/scanners/ModuleScanner.h
FN:4,4,_ZNK8sys_scan13ModuleScanner11descriptionB5cxx11Ev
FN:4,4,_ZNK8sys_scan13ModuleScanner4nameB5cxx11Ev
FNDA:0,_ZNK8sys_scan13ModuleScanner11descriptionB5cxx11Ev
FNDA:2805,_ZNK8sys_scan13ModuleScanner4nameB5cxx11Ev
FNF:2
FNH:1
DA:4,8415
LF:1
LH:1
end_of_record
TN:
SF:/home/joseph-mazzini/sys-scan-graph/src/scanners/ModuleUtils.cpp
FN:18,40,_ZN8sys_scan21decompress_xz_boundedERKNSt7__cxx1112basic_stringIcSt11char_traitsIcESaIcEEE
FN:42,48,_ZN8sys_scan21decompress_gz_boundedERKNSt7__cxx1112basic_stringIcSt11char_traitsIcESaIcEEE
FNDA:0,_ZN8sys_scan21decompress_xz_boundedERKNSt7__cxx1112basic_stringIcSt11char_traitsIcESaIcEEE
FNDA:0,_ZN8sys_scan21decompress_gz_boundedERKNSt7__cxx1112basic_stringIcSt11char_traitsIcESaIcEEE
FNF:2
FNH:0
DA:18,0
DA:20,0
DA:21,0
DA:22,0
DA:23,0
DA:24,0
DA:26,0
DA:28,0
DA:29,0
DA:30,0
DA:31,0
DA:32,0
DA:33,0
DA:34,0
DA:35,0
DA:36,0
DA:40,0
DA:42,0
DA:44,0
DA:48,0
LF:20
LH:0
end_of_record
TN:
SF:/home/joseph-mazzini/sys-scan-graph/src/scanners/MountScanner.cpp
FN:12,24,_ZN8sys_scanL7has_optERKNSt7__cxx1112basic_stringIcSt11char_traitsIcESaIcEEES7_
FN:26,72,_ZN8sys_scan12MountScanner4scanERNS_11ScanContextE
FN:47,48,_ZZN8sys_scan12MountScanner4scanERNS_11ScanContextEENKUlRKNSt7__cxx1112basic_stringIcSt11char_traitsIcESaIcEEENS_8SeverityESA_SA_E_clESA_SB_SA_SA_
FNDA:0,_ZN8sys_scanL7has_optERKNSt7__cxx1112basic_stringIcSt11char_traitsIcESaIcEEES7_
FNDA:14,_ZN8sys_scan12MountScanner4scanERNS_11ScanContextE
FNDA:0,_ZZN8sys_scan12MountScanner4scanERNS_11ScanContextEENKUlRKNSt7__cxx1112basic_stringIcSt11char_traitsIcESaIcEEENS_8SeverityESA_SA_E_clESA_SB_SA_SA_
FNF:3
FNH:1
DA:12,0
DA:14,0
DA:15,0
DA:17,0
DA:18,0
DA:19,0
DA:20,0
DA:21,0
DA:22,0
DA:23,0
DA:24,0
DA:26,14
DA:27,14
DA:28,14
DA:30,0
DA:31,0
DA:32,0
DA:34,0
DA:36,0
DA:37,0
DA:38,0
DA:39,0
DA:42,0
DA:43,0
DA:45,0
DA:47,0
DA:48,0
DA:51,0
DA:52,0
DA:53,0
DA:54,0
DA:55,0
DA:58,0
DA:60,0
DA:61,0
DA:65,0
DA:68,0
DA:71,0
DA:72,0
LF:39
LH:3
end_of_record
TN:
SF:/home/joseph-mazzini/sys-scan-graph/src/scanners/MountScanner.h
FN:12,12,_ZNK8sys_scan12MountScanner4nameB5cxx11Ev
FN:13,13,_ZNK8sys_scan12MountScanner11descriptionB5cxx11Ev
FNDA:75,_ZNK8sys_scan12MountScanner4nameB5cxx11Ev
FNDA:0,_ZNK8sys_scan12MountScanner11descriptionB5cxx11Ev
FNF:2
FNH:1
DA:12,225
DA:13,0
LF:2
LH:1
end_of_record
TN:
SF:/home/joseph-mazzini/sys-scan-graph/src/scanners/NetworkScanner.cpp
FN:108,200,_ZN8sys_scanL20build_inode_map_leanEPA16_cS1_PA256_cPA13_cmRKNS_6ConfigE
FN:202,202,_ZN8sys_scanL9tcp_stateERKNSt7__cxx1112basic_stringIcSt11char_traitsIcESaIcEEE
FN:204,215,_ZN8sys_scanL21classify_tcp_severityERKNSt7__cxx1112basic_stringIcSt11char_traitsIcESaIcEEEjS7_
FN:217,231,_ZN8sys_scanL16escalate_exposedERKNSt7__cxx1112basic_stringIcSt11char_traitsIcESaIcEEES7_S7_
FN:219,224,_ZZN8sys_scanL16escalate_exposedERKNSt7__cxx1112basic_stringIcSt11char_traitsIcESaIcEEES7_S7_ENKUlvE_clEv
FN:233,237,_ZN8sys_scanL13state_allowedERKNSt7__cxx1112basic_stringIcSt11char_traitsIcESaIcEEERKNS_6ConfigE
FN:240,254,_ZN8sys_scanL17hex_ip_to_v4_leanEPKcPcm
FN:256,271,_ZN8sys_scanL19hex_ip6_to_str_leanEPKcPcm
FN:274,288,_ZN8sys_scanL14tcp_state_leanEPKc
FN:291,305,_ZN8sys_scanL26classify_tcp_severity_leanEPKcjS1_
FN:30,36,_ZN8sys_scanL18state_allowed_leanEPKcRKNS_6ConfigE
FN:307,311,_ZN8sys_scanL26classify_udp_severity_leanEjPKc
FN:314,335,_ZN8sys_scanL21escalate_exposed_leanENS_8SeverityEPKcS2_
FN:338,345,_ZN8sys_scanL15find_inode_leanEPA16_KcmPS0_
FN:350,509,_ZN8sys_scanL14parse_tcp_leanEPKcRNS_6ReportES1_PA16_S0_S5_PA256_S0_PA13_S0_mRmPSt13unordered_mapINSt7__cxx1112basic_stringIcSt11char_traitsIcESaIcEEENS_9FanoutAggESt4hashISH_ESt8equal_toISH_ESaISt4pairIKSH_SI_EEERKNS_6ConfigE
FN:42,81,_ZN8sys_scanL25extract_container_id_leanEPKcmPcm
FN:512,628,_ZN8sys_scanL14parse_udp_leanEPKcRNS_6ReportES1_PA16_S0_S5_PA256_S0_PA13_S0_mRmRKNS_6ConfigE
FN:630,663,_ZN8sys_scan14NetworkScanner4scanERNS_11ScanContextE
FN:84,91,_ZN8sys_scanL12is_valid_pidEPKcPi
FN:94,105,_ZN8sys_scanL19read_file_to_bufferEPKcPcm
FNDA:0,_ZN8sys_scanL20build_inode_map_leanEPA16_cS1_PA256_cPA13_cmRKNS_6ConfigE
FNDA:0,_ZN8sys_scanL9tcp_stateERKNSt7__cxx1112basic_stringIcSt11char_traitsIcESaIcEEE
FNDA:0,_ZN8sys_scanL21classify_tcp_severityERKNSt7__cxx1112basic_stringIcSt11char_traitsIcESaIcEEEjS7_
FNDA:0,_ZN8sys_scanL16escalate_exposedERKNSt7__cxx1112basic_stringIcSt11char_traitsIcESaIcEEES7_S7_
FNDA:0,_ZZN8sys_scanL16escalate_exposedERKNSt7__cxx1112basic_stringIcSt11char_traitsIcESaIcEEES7_S7_ENKUlvE_clEv
FNDA:0,_ZN8sys_scanL13state_allowedERKNSt7__cxx1112basic_stringIcSt11char_traitsIcESaIcEEERKNS_6ConfigE
FNDA:0,_ZN8sys_scanL17hex_ip_to_v4_leanEPKcPcm
FNDA:0,_ZN8sys_scanL19hex_ip6_to_str_leanEPKcPcm
FNDA:0,_ZN8sys_scanL14tcp_state_leanEPKc
FNDA:0,_ZN8sys_scanL26classify_tcp_severity_leanEPKcjS1_
FNDA:0,_ZN8sys_scanL18state_allowed_leanEPKcRKNS_6ConfigE
FNDA:0,_ZN8sys_scanL26classify_udp_severity_leanEjPKc
FNDA:0,_ZN8sys_scanL21escalate_exposed_leanENS_8SeverityEPKcS2_
FNDA:0,_ZN8sys_scanL15find_inode_leanEPA16_KcmPS0_
FNDA:30,_ZN8sys_scanL14parse_tcp_leanEPKcRNS_6ReportES1_PA16_S0_S5_PA256_S0_PA13_S0_mRmPSt13unordered_mapINSt7__cxx1112basic_stringIcSt11char_traitsIcESaIcEEENS_9FanoutAggESt4hashISH_ESt8equal_toISH_ESaISt4pairIKSH_SI_EEERKNS_6ConfigE
FNDA:0,_ZN8sys_scanL25extract_container_id_leanEPKcmPcm
FNDA:30,_ZN8sys_scanL14parse_udp_leanEPKcRNS_6ReportES1_PA16_S0_S5_PA256_S0_PA13_S0_mRmRKNS_6ConfigE
FNDA:15,_ZN8sys_scan14NetworkScanner4scanERNS_11ScanContextE
FNDA:0,_ZN8sys_scanL12is_valid_pidEPKcPi
FNDA:60,_ZN8sys_scanL19read_file_to_bufferEPKcPcm
FNF:20
FNH:4
DA:30,0
DA:31,0
DA:32,0
DA:33,0
DA:35,0
DA:42,0
DA:43,0
DA:45,0
DA:46,0
DA:48,0
DA:49,0
DA:51,0
DA:52,0
DA:53,0
DA:54,0
DA:55,0
DA:58,0
DA:59,0
DA:60,0
DA:61,0
DA:65,0
DA:66,0
DA:67,0
DA:68,0
DA:69,0
DA:72,0
DA:73,0
DA:74,0
DA:75,0
DA:78,0
DA:80,0
DA:84,0
DA:85,0
DA:87,0
DA:88,0
DA:89,0
DA:90,0
DA:94,60
DA:95,60
DA:96,60
DA:97,60
DA:98,135
DA:99,135
DA:100,135
DA:101,75
DA:103,60
DA:104,60
DA:108,0
DA:109,0
DA:110,0
DA:112,0
DA:114,0
DA:115,0
DA:117,0
DA:124,0
DA:125,0
DA:126,0
DA:127,0
DA:130,0
DA:131,0
DA:133,0
DA:134,0
DA:135,0
DA:136,0
DA:142,0
DA:143,0
DA:144,0
DA:146,0
DA:150,0
DA:151,0
DA:153,0
DA:154,0
DA:157,0
DA:160,0
DA:161,0
DA:163,0
DA:166,0
DA:167,0
DA:170,0
DA:171,0
DA:172,0
DA:174,0
DA:175,0
DA:177,0
DA:178,0
DA:181,0
DA:182,0
DA:183,0
DA:185,0
DA:187,0
DA:188,0
DA:190,0
DA:193,0
DA:195,0
DA:198,0
DA:199,0
DA:202,0
DA:204,0
DA:206,0
DA:207,0
DA:208,0
DA:209,0
DA:210,0
DA:211,0
DA:214,0
DA:217,0
DA:218,0
DA:219,0
DA:220,0
DA:221,0
DA:222,0
DA:223,0
DA:224,0
DA:225,0
DA:227,0
DA:228,0
DA:229,0
DA:230,0
DA:233,0
DA:234,0
DA:235,0
DA:236,0
DA:240,0
DA:241,0
DA:243,0
DA:244,0
DA:247,0
DA:248,0
DA:249,0
DA:250,0
DA:252,0
DA:253,0
DA:256,0
DA:257,0
DA:259,0
DA:260,0
DA:261,0
DA:262,0
DA:263,0
DA:265,0
DA:266,0
DA:267,0
DA:269,0
DA:270,0
DA:274,0
DA:282,0
DA:283,0
DA:284,0
DA:287,0
DA:291,0
DA:292,0
DA:293,0
DA:294,0
DA:295,0
DA:297,0
DA:298,0
DA:299,0
DA:301,0
DA:304,0
DA:307,0
DA:308,0
DA:309,0
DA:310,0
DA:314,0
DA:315,0
DA:318,0
DA:319,0
DA:320,0
DA:321,0
DA:322,0
DA:323,0
DA:324,0
DA:329,0
DA:330,0
DA:331,0
DA:334,0
DA:338,0
DA:339,0
DA:340,0
DA:341,0
DA:344,0
DA:350,30
DA:356,30
DA:357,30
DA:358,0
DA:359,0
DA:361,30
DA:363,30
DA:365,4425
DA:366,30
DA:368,30
DA:370,30
DA:372,30
DA:374,0
DA:375,0
DA:376,0
DA:378,0
DA:379,0
DA:380,0
DA:381,0
DA:384,0
DA:385,0
DA:386,0
DA:389,0
DA:393,0
DA:394,0
DA:395,0
DA:396,0
DA:397,0
DA:400,0
DA:403,0
DA:404,0
DA:405,0
DA:406,0
DA:407,0
DA:410,0
DA:411,0
DA:412,0
DA:414,0
DA:415,0
DA:416,0
DA:417,0
DA:420,0
DA:421,0
DA:423,0
DA:425,0
DA:427,0
DA:428,0
DA:431,0
DA:432,0
DA:433,0
DA:434,0
DA:436,0
DA:437,0
DA:441,0
DA:443,0
DA:444,0
DA:447,0
DA:448,0
DA:450,0
DA:451,0
DA:453,0
DA:454,0
DA:455,0
DA:456,0
DA:457,0
DA:458,0
DA:459,0
DA:460,0
DA:463,0
DA:464,0
DA:465,0
DA:466,0
DA:467,0
DA:471,0
DA:472,0
DA:473,0
DA:477,0
DA:478,0
DA:479,0
DA:482,0
DA:483,0
DA:484,0
DA:485,0
DA:486,0
DA:489,0
DA:492,0
DA:493,0
DA:494,0
DA:495,0
DA:498,0
DA:499,0
DA:501,0
DA:503,0
DA:506,0
DA:507,0
DA:508,0
DA:512,30
DA:517,30
DA:518,30
DA:519,0
DA:520,0
DA:522,30
DA:524,30
DA:526,4365
DA:527,30
DA:529,30
DA:531,30
DA:533,30
DA:535,0
DA:536,0
DA:537,0
DA:539,0
DA:540,0
DA:541,0
DA:542,0
DA:545,0
DA:546,0
DA:547,0
DA:550,0
DA:554,0
DA:555,0
DA:556,0
DA:557,0
DA:558,0
DA:561,0
DA:564,0
DA:565,0
DA:566,0
DA:569,0
DA:570,0
DA:572,0
DA:573,0
DA:574,0
DA:576,0
DA:579,0
DA:580,0
DA:581,0
DA:583,0
DA:587,0
DA:589,0
DA:590,0
DA:593,0
DA:594,0
DA:596,0
DA:597,0
DA:599,0
DA:600,0
DA:601,0
DA:602,0
DA:603,0
DA:606,0
DA:607,0
DA:608,0
DA:609,0
DA:610,0
DA:614,0
DA:615,0
DA:616,0
DA:620,0
DA:621,0
DA:623,0
DA:625,0
DA:626,0
DA:627,0
DA:630,15
DA:631,15
DA:632,15
DA:635,15
DA:638,15
DA:639,15
DA:640,15
DA:641,15
DA:643,15
DA:646,15
DA:647,0
DA:651,15
DA:652,15
DA:653,15
DA:654,15
DA:658,15
DA:659,15
DA:660,15
DA:661,15
DA:663,15
LF:365
LH:49
end_of_record
TN:
SF:/home/joseph-mazzini/sys-scan-graph/src/scanners/NetworkScanner.h
FN:3,3,_ZNK8sys_scan14NetworkScanner11descriptionB5cxx11Ev
FN:3,3,_ZNK8sys_scan14NetworkScanner4nameB5cxx11Ev
FNDA:0,_ZNK8sys_scan14NetworkScanner11descriptionB5cxx11Ev
FNDA:79,_ZNK8sys_scan14NetworkScanner4nameB5cxx11Ev
FNF:2
FNH:1
DA:3,237
LF:1
LH:1
end_of_record
TN:
SF:/home/joseph-mazzini/sys-scan-graph/src/scanners/ProcessScanner.cpp
FN:125,173,_ZN8sys_scanL16fast_sha256_leanEPKcPc
FN:176,191,_ZN8sys_scanL14list_proc_pidsEPim
FN:193,336,_ZN8sys_scan14ProcessScanner4scanERNS_11ScanContextE
FN:21,28,_ZN8sys_scanL12is_valid_pidEPKcPi
FN:31,42,_ZN8sys_scanL19read_file_to_bufferEPKcPcm
FN:45,84,_ZN8sys_scanL25extract_container_id_leanEPKcmPcm
FN:87,122,_ZN8sys_scanL18parse_uid_gid_leanEPKcmPcmS2_m
FNDA:0,_ZN8sys_scanL16fast_sha256_leanEPKcPc
FNDA:15,_ZN8sys_scanL14list_proc_pidsEPim
FNDA:15,_ZN8sys_scan14ProcessScanner4scanERNS_11ScanContextE
FNDA:5861,_ZN8sys_scanL12is_valid_pidEPKcPi
FNDA:9802,_ZN8sys_scanL19read_file_to_bufferEPKcPcm
FNDA:0,_ZN8sys_scanL25extract_container_id_leanEPKcmPcm
FNDA:7502,_ZN8sys_scanL18parse_uid_gid_leanEPKcmPcmS2_m
FNF:7
FNH:5
DA:21,5861
DA:22,5861
DA:24,5861
DA:25,5861
DA:26,4901
DA:27,4901
DA:31,9802
DA:32,9802
DA:33,9802
DA:34,9802
DA:35,17304
DA:36,17304
DA:37,17304
DA:38,7502
DA:40,9802
DA:41,9802
DA:45,0
DA:46,0
DA:48,0
DA:49,0
DA:51,0
DA:52,0
DA:54,0
DA:55,0
DA:56,0
DA:57,0
DA:58,0
DA:61,0
DA:62,0
DA:63,0
DA:64,0
DA:68,0
DA:69,0
DA:70,0
DA:71,0
DA:72,0
DA:75,0
DA:76,0
DA:77,0
DA:78,0
DA:81,0
DA:83,0
DA:87,7502
DA:88,7502
DA:89,7502
DA:90,7502
DA:92,82522
DA:93,75020
DA:94,7502
DA:95,15004
DA:96,7502
DA:97,27370
DA:98,7502
DA:99,7502
DA:100,7502
DA:101,7502
DA:102,7502
DA:104,75020
DA:105,7502
DA:106,15004
DA:107,7502
DA:108,27190
DA:109,7502
DA:110,7502
DA:111,7502
DA:112,7502
DA:113,7502
DA:118,957119
DA:119,75020
DA:121,7502
DA:125,0
DA:170,0
DA:171,0
DA:176,15
DA:177,15
DA:178,15
DA:180,15
DA:182,5906
DA:183,5891
DA:185,5861
DA:186,4901
DA:189,15
DA:190,15
DA:193,15
DA:194,15
DA:196,15
DA:199,15
DA:204,15
DA:206,15
DA:207,0
DA:208,0
DA:210,0
DA:213,0
DA:214,0
DA:215,0
DA:216,0
DA:217,0
DA:218,0
DA:224,15
DA:227,4916
DA:228,4901
DA:229,4901
DA:233,4901
DA:236,4901
DA:237,4901
DA:238,0
DA:239,0
DA:241,4901
DA:245,4901
DA:246,4901
DA:250,4901
DA:253,4901
DA:254,4901
DA:255,4901
DA:256,2601
DA:257,2601
DA:259,6900
DA:263,4901
DA:264,2601
DA:267,2601
DA:268,0
DA:269,0
DA:270,0
DA:271,0
DA:272,0
DA:275,0
DA:278,2601
DA:281,2601
DA:284,2601
DA:285,2601
DA:286,2601
DA:287,2601
DA:289,2601
DA:290,346
DA:291,346
DA:292,346
DA:293,346
DA:294,346
DA:296,346
DA:297,519
DA:298,519
DA:300,346
DA:302,0
DA:303,0
DA:304,0
DA:305,0
DA:310,346
DA:314,0
DA:315,0
DA:316,0
DA:317,0
DA:318,0
DA:322,0
DA:323,0
DA:325,0
DA:328,0
DA:332,346
DA:333,346
DA:334,346
DA:335,7201
DA:336,15
LF:161
LH:102
end_of_record
TN:
SF:/home/joseph-mazzini/sys-scan-graph/src/scanners/ProcessScanner.h
FN:7,7,_ZNK8sys_scan14ProcessScanner4nameB5cxx11Ev
FN:8,8,_ZNK8sys_scan14ProcessScanner11descriptionB5cxx11Ev
FNDA:2725,_ZNK8sys_scan14ProcessScanner4nameB5cxx11Ev
FNDA:0,_ZNK8sys_scan14ProcessScanner11descriptionB5cxx11Ev
FNF:2
FNH:1
DA:7,8175
DA:8,0
LF:2
LH:1
end_of_record
TN:
SF:/home/joseph-mazzini/sys-scan-graph/src/scanners/SuidScanner.cpp
FN:145,192,_ZN8sys_scanL28deduplicate_suid_files_batchEPNS_12SuidFileLeanEi
FN:195,199,_ZN8sys_scanL27classify_suid_severity_leanEPKc
FN:202,224,_ZN8sys_scanL21is_expected_path_leanEPKc
FN:226,286,_ZN8sys_scan11SuidScanner4scanERNS_11ScanContextE
FN:46,48,_ZN8sys_scanL17string_equal_leanEPKcS1_
FN:50,52,_ZN8sys_scanL20string_contains_leanEPKcS1_
FN:54,61,_ZN8sys_scanL16string_copy_leanEPcPKcm
FN:64,69,_ZN8sys_scanL21has_suid_or_sgid_leanEPKcP4stat
FN:72,87,_ZN8sys_scanL16list_files_batchEPKcPA256_ci
FN:90,142,_ZN8sys_scanL24collect_suid_files_batchEPKcPNS_12SuidFileLeanEPNS_8DirStackEPA256_ci
FNDA:15,_ZN8sys_scanL28deduplicate_suid_files_batchEPNS_12SuidFileLeanEi
FNDA:240,_ZN8sys_scanL27classify_suid_severity_leanEPKc
FNDA:240,_ZN8sys_scanL21is_expected_path_leanEPKc
FNDA:15,_ZN8sys_scan11SuidScanner4scanERNS_11ScanContextE
FNDA:3735,_ZN8sys_scanL17string_equal_leanEPKcS1_
FNDA:480,_ZN8sys_scanL20string_contains_leanEPKcS1_
FNDA:109515,_ZN8sys_scanL16string_copy_leanEPcPKcm
FNDA:86490,_ZN8sys_scanL21has_suid_or_sgid_leanEPKcP4stat
FNDA:90,_ZN8sys_scanL16list_files_batchEPKcPA256_ci
FNDA:90,_ZN8sys_scanL24collect_suid_files_batchEPKcPNS_12SuidFileLeanEPNS_8DirStackEPA256_ci
FNF:10
FNH:10
DA:46,3735
DA:47,3735
DA:50,480
DA:51,480
DA:54,109515
DA:55,109515
DA:56,109515
DA:57,109515
DA:58,109515
DA:59,109515
DA:60,109515
DA:64,86490
DA:66,86490
DA:67,86490
DA:68,86490
DA:72,90
DA:73,90
DA:74,90
DA:77,90
DA:79,109125
DA:80,109035
DA:81,108855
DA:82,108855
DA:85,90
DA:86,90
DA:90,90
DA:92,90
DA:94,90
DA:96,180
DA:98,90
DA:99,90
DA:102,90
DA:103,90
DA:106,108930
DA:107,108855
DA:111,108855
DA:112,108855
DA:114,108855
DA:116,108855
DA:117,108855
DA:118,108855
DA:119,108855
DA:122,108855
DA:123,108855
DA:125,0
DA:126,0
DA:128,108855
DA:129,86490
DA:131,570
DA:132,570
DA:133,570
DA:134,570
DA:141,90
DA:145,15
DA:154,15
DA:156,15
DA:158,585
DA:159,570
DA:160,570
DA:163,240
DA:164,240
DA:167,240
DA:168,240
DA:169,240
DA:170,240
DA:172,240
DA:174,240
DA:175,240
DA:176,240
DA:177,240
DA:178,0
DA:180,0
DA:181,0
DA:182,0
DA:186,240
DA:187,240
DA:191,15
DA:195,240
DA:196,240
DA:197,240
DA:198,240
DA:202,240
DA:204,2370
DA:205,2265
DA:206,135
DA:211,105
DA:212,105
DA:214,1575
DA:215,1470
DA:216,1470
DA:217,1470
DA:218,1470
DA:219,0
DA:223,105
DA:226,15
DA:227,15
DA:228,15
DA:231,15
DA:232,15
DA:233,15
DA:235,15
DA:237,0
DA:238,0
DA:239,0
DA:240,0
DA:244,15
DA:245,15
DA:246,15
DA:248,15
DA:251,105
DA:252,90
DA:253,90
DA:257,15
DA:260,585
DA:261,570
DA:262,570
DA:264,240
DA:266,240
DA:267,240
DA:268,240
DA:269,240
DA:270,240
DA:273,375
DA:274,135
DA:275,135
DA:276,135
DA:279,240
DA:280,240
DA:283,15
DA:284,15
DA:285,15
LF:131
LH:120
end_of_record
TN:
SF:/home/joseph-mazzini/sys-scan-graph/src/scanners/SuidScanner.h
FN:8,8,_ZNK8sys_scan11SuidScanner4nameB5cxx11Ev
FN:9,9,_ZNK8sys_scan11SuidScanner11descriptionB5cxx11Ev
FNDA:319,_ZNK8sys_scan11SuidScanner4nameB5cxx11Ev
FNDA:0,_ZNK8sys_scan11SuidScanner11descriptionB5cxx11Ev
FNF:2
FNH:1
DA:8,957
DA:9,0
LF:2
LH:1
end_of_record
TN:
SF:/home/joseph-mazzini/sys-scan-graph/src/scanners/SystemdUnitScanner.cpp
FN:138,157,_ZN8sys_scanL27collect_service_files_batchEPKcPNS_12ServiceBatchE
FN:160,168,_ZN8sys_scanL19unit_has_exec_startEPKNS_12UnitDataLeanE
FN:171,179,_ZN8sys_scanL15find_unit_valueEPKNS_12UnitDataLeanEPKc
FN:181,348,_ZN8sys_scan18SystemdUnitScanner4scanERNS_11ScanContextE
FN:36,52,_ZN8sys_scanL16trim_string_leanEPc
FN:54,56,_ZN8sys_scanL17string_equal_leanEPKcS1_
FN:58,60,_ZN8sys_scanL20string_contains_leanEPKcS1_
FN:62,69,_ZN8sys_scanL16string_copy_leanEPcPKcm
FN:72,83,_ZN8sys_scanL24read_file_to_buffer_leanEiPcm
FN:86,135,_ZN8sys_scanL15parse_unit_leanEPKcPNS_12UnitDataLeanE
FNDA:0,_ZN8sys_scanL27collect_service_files_batchEPKcPNS_12ServiceBatchE
FNDA:0,_ZN8sys_scanL19unit_has_exec_startEPKNS_12UnitDataLeanE
FNDA:0,_ZN8sys_scanL15find_unit_valueEPKNS_12UnitDataLeanEPKc
FNDA:14,_ZN8sys_scan18SystemdUnitScanner4scanERNS_11ScanContextE
FNDA:0,_ZN8sys_scanL16trim_string_leanEPc
FNDA:0,_ZN8sys_scanL17string_equal_leanEPKcS1_
FNDA:0,_ZN8sys_scanL20string_contains_leanEPKcS1_
FNDA:0,_ZN8sys_scanL16string_copy_leanEPcPKcm
FNDA:0,_ZN8sys_scanL24read_file_to_buffer_leanEiPcm
FNDA:0,_ZN8sys_scanL15parse_unit_leanEPKcPNS_12UnitDataLeanE
FNF:10
FNH:1
DA:36,0
DA:37,0
DA:38,0
DA:39,0
DA:41,0
DA:42,0
DA:43,0
DA:44,0
DA:46,0
DA:47,0
DA:48,0
DA:49,0
DA:50,0
DA:54,0
DA:55,0
DA:58,0
DA:59,0
DA:62,0
DA:63,0
DA:64,0
DA:65,0
DA:66,0
DA:67,0
DA:68,0
DA:72,0
DA:73,0
DA:75,0
DA:77,0
DA:78,0
DA:79,0
DA:81,0
DA:82,0
DA:86,0
DA:87,0
DA:89,0
DA:90,0
DA:91,0
DA:93,0
DA:94,0
DA:95,0
DA:98,0
DA:99,0
DA:100,0
DA:101,0
DA:105,0
DA:106,0
DA:108,0
DA:109,0
DA:110,0
DA:111,0
DA:115,0
DA:116,0
DA:118,0
DA:119,0
DA:122,0
DA:123,0
DA:124,0
DA:127,0
DA:128,0
DA:129,0
DA:131,0
DA:132,0
DA:133,0
DA:138,0
DA:139,0
DA:141,0
DA:142,0
DA:145,0
DA:147,0
DA:148,0
DA:149,0
DA:151,0
DA:152,0
DA:155,0
DA:156,0
DA:160,0
DA:161,0
DA:162,0
DA:163,0
DA:164,0
DA:167,0
DA:171,0
DA:172,0
DA:173,0
DA:174,0
DA:175,0
DA:178,0
DA:181,14
DA:182,14
DA:185,0
DA:186,0
DA:187,0
DA:189,0
DA:191,0
DA:192,0
DA:193,0
DA:194,0
DA:198,0
DA:199,0
DA:200,0
DA:203,0
DA:208,0
DA:210,0
DA:213,0
DA:214,0
DA:218,0
DA:221,0
DA:224,0
DA:225,0
DA:229,0
DA:230,0
DA:232,0
DA:234,0
DA:235,0
DA:236,0
DA:237,0
DA:240,0
DA:241,0
DA:243,0
DA:244,0
DA:246,0
DA:249,0
DA:250,0
DA:251,0
DA:254,0
DA:255,0
DA:285,0
DA:288,0
DA:289,0
DA:291,0
DA:292,0
DA:293,0
DA:295,0
DA:296,0
DA:298,0
DA:299,0
DA:300,0
DA:301,0
DA:302,0
DA:303,0
DA:304,0
DA:306,0
DA:310,0
DA:315,0
DA:316,0
DA:317,0
DA:318,0
DA:320,0
DA:321,0
DA:322,0
DA:324,0
DA:325,0
DA:326,0
DA:327,0
DA:328,0
DA:329,0
DA:331,0
DA:332,0
DA:333,0
DA:335,0
DA:336,0
DA:337,0
DA:340,0
DA:341,0
DA:345,0
DA:346,0
DA:347,0
LF:167
LH:2
end_of_record
TN:
SF:/home/joseph-mazzini/sys-scan-graph/src/scanners/SystemdUnitScanner.h
FN:11,11,_ZNK8sys_scan18SystemdUnitScanner4nameB5cxx11Ev
FN:12,12,_ZNK8sys_scan18SystemdUnitScanner11descriptionB5cxx11Ev
FNDA:75,_ZNK8sys_scan18SystemdUnitScanner4nameB5cxx11Ev
FNDA:0,_ZNK8sys_scan18SystemdUnitScanner11descriptionB5cxx11Ev
FNF:2
FNH:1
DA:11,225
DA:12,0
LF:2
LH:1
end_of_record
TN:
SF:/home/joseph-mazzini/sys-scan-graph/src/scanners/WorldWritableScanner.cpp
FN:167,232,_ZN8sys_scanL25scan_directory_batch_leanEPKcPNS_9FileBatchEmm
FN:234,363,_ZN8sys_scan20WorldWritableScanner4scanERNS_11ScanContextE
FN:48,164,_ZN8sys_scanL23process_file_batch_leanEPNS_9FileBatchERNS_11ScanContextERKSt6vectorINSt7__cxx1112basic_stringIcSt11char_traitsIcESaIcEEESaISA_EEiPmPPKcmPNS_10InodeEntryESF_
FNDA:80,_ZN8sys_scanL25scan_directory_batch_leanEPKcPNS_9FileBatchEmm
FNDA:16,_ZN8sys_scan20WorldWritableScanner4scanERNS_11ScanContextE
FNDA:16,_ZN8sys_scanL23process_file_batch_leanEPNS_9FileBatchERNS_11ScanContextERKSt6vectorINSt7__cxx1112basic_stringIcSt11char_traitsIcESaIcEEESaISA_EEiPmPPKcmPNS_10InodeEntryESF_
FNF:3
FNH:3
DA:48,16
DA:54,77584
DA:55,77568
DA:58,77568
DA:59,77568
DA:60,0
DA:61,0
DA:62,0
DA:65,77568
DA:68,77568
DA:69,16
DA:70,16
DA:71,16
DA:72,16
DA:73,16
DA:76,16
DA:77,0
DA:78,16
DA:79,16
DA:80,0
DA:83,48
DA:84,16
DA:85,16
DA:88,77568
DA:89,384
DA:90,384
DA:92,384
DA:95,3840
DA:96,3456
DA:97,0
DA:98,0
DA:103,384
DA:104,0
DA:105,0
DA:106,0
DA:107,0
DA:112,384
DA:113,0
DA:114,0
DA:115,0
DA:116,0
DA:117,0
DA:118,0
DA:119,0
DA:120,0
DA:124,77568
DA:125,64
DA:126,64
DA:127,64
DA:128,64
DA:129,64
DA:130,64
DA:131,192
DA:132,64
DA:135,77568
DA:136,384
DA:139,384
DA:140,2496
DA:141,2304
DA:142,192
DA:143,192
DA:148,384
DA:149,192
DA:150,192
DA:151,192
DA:152,192
DA:156,384
DA:157,384
DA:158,384
DA:159,384
DA:160,384
DA:164,16
DA:167,80
DA:169,80
DA:170,80
DA:172,80
DA:174,99856
DA:175,99856
DA:176,99856
DA:178,99776
DA:181,99552
DA:182,99552
DA:184,99552
DA:186,99552
DA:187,99552
DA:188,99552
DA:189,99552
DA:192,99552
DA:193,99552
DA:196,99552
DA:199,77568
DA:200,77568
DA:203,77568
DA:205,77568
DA:206,77568
DA:210,77568
DA:211,77568
DA:212,384
DA:213,384
DA:214,384
DA:215,384
DA:217,384
DA:218,384
DA:221,384
DA:222,384
DA:227,77568
DA:230,80
DA:231,80
DA:234,16
DA:236,16
DA:237,16
DA:240,16
DA:241,16
DA:244,16
DA:245,16
DA:246,16
DA:247,16
DA:248,16
DA:249,16
DA:252,96
DA:253,80
DA:254,80
DA:257,16
DA:260,16
DA:265,16
DA:266,0
DA:268,0
DA:269,0
DA:271,0
DA:273,0
DA:274,0
DA:277,0
DA:281,16
DA:284,0
DA:285,0
DA:286,0
DA:289,0
DA:291,0
DA:292,0
DA:294,0
DA:295,0
DA:296,0
DA:299,0
DA:300,0
DA:301,0
DA:302,0
DA:303,0
DA:304,0
DA:305,0
DA:306,0
DA:307,0
DA:308,0
DA:312,0
DA:313,0
DA:318,0
DA:319,0
DA:321,0
DA:322,0
DA:323,0
DA:325,0
DA:326,0
DA:328,0
DA:329,0
DA:331,0
DA:332,0
DA:333,0
DA:334,0
DA:337,0
DA:338,0
DA:339,0
DA:340,0
DA:345,0
DA:346,0
DA:347,0
DA:348,0
DA:349,0
DA:350,0
DA:351,0
DA:353,0
DA:354,0
DA:355,0
DA:356,0
DA:358,0
DA:360,0
DA:361,0
LF:185
LH:107
end_of_record
TN:
SF:/home/joseph-mazzini/sys-scan-graph/src/scanners/WorldWritableScanner.h
FN:4,4,_ZNK8sys_scan20WorldWritableScanner11descriptionB5cxx11Ev
FN:4,4,_ZNK8sys_scan20WorldWritableScanner4nameB5cxx11Ev
FNDA:0,_ZNK8sys_scan20WorldWritableScanner11descriptionB5cxx11Ev
FNDA:83,_ZNK8sys_scan20WorldWritableScanner4nameB5cxx11Ev
FNF:2
FNH:1
DA:4,249
LF:1
LH:1
end_of_record
TN:
SF:/home/joseph-mazzini/sys-scan-graph/src/scanners/YaraScanner.cpp
FN:18,22,_ZN8sys_scanL13load_patternsERKNSt7__cxx1112basic_stringIcSt11char_traitsIcESaIcEEE
FN:24,39,_ZN8sys_scan11YaraScanner4scanERNS_11ScanContextE
FNDA:0,_ZN8sys_scanL13load_patternsERKNSt7__cxx1112basic_stringIcSt11char_traitsIcESaIcEEE
FNDA:0,_ZN8sys_scan11YaraScanner4scanERNS_11ScanContextE
FNF:2
FNH:0
DA:18,0
DA:19,0
DA:20,0
DA:21,0
DA:22,0
DA:24,0
DA:25,0
DA:27,0
DA:28,0
DA:29,0
DA:32,0
DA:34,0
DA:36,0
DA:38,0
DA:39,0
LF:15
LH:0
end_of_record
TN:
SF:/home/joseph-mazzini/sys-scan-graph/src/scanners/YaraScanner.h
FN:13,13,_ZNK8sys_scan11YaraScanner4nameB5cxx11Ev
FN:14,14,_ZNK8sys_scan11YaraScanner11descriptionB5cxx11Ev
FNDA:2,_ZNK8sys_scan11YaraScanner4nameB5cxx11Ev
FNDA:0,_ZNK8sys_scan11YaraScanner11descriptionB5cxx11Ev
FNF:2
FNH:1
DA:13,6
DA:14,0
LF:2
LH:1
end_of_record
